(dp1
S'rel_n5_std_secure'
p2
(lp3
S'#__out__/LNX_TI_cgt2_70/rel_n5_camera_micron/si/rel_n5_std_secure.m0'
p4
asS'rel_n5_camera_micron_profiler'
p5
(lp6
S'#__out__/LNX_TI_cgt2_70/rel_n5_camera_micron/si/rel_n5_camera_micron_profiler.m0'
p7
asS'rel_n5_profiler'
p8
(lp9
S'#__out__/LNX_TI_cgt2_70/rel_n5_camera_micron/si/rel_n5_profiler.m0'
p10
asS'rel_n5_std_no_ezi'
p11
(lp12
S'#__out__/LNX_TI_cgt2_70/rel_n5_camera_micron/si/rel_n5_std_no_ezi.m0'
p13
asS'rel_n5_std'
p14
(lp15
S'#__out__/LNX_TI_cgt2_70/rel_n5_camera_micron/si/rel_n5_std.m0'
p16
asS'rel_n5_camera_micron'
p17
(lp18
S'#__out__/LNX_TI_cgt2_70/rel_n5_camera_micron/si/rel_n5_camera_micron.m0'
p19
asS'rel_n5_camera_micron_cmd'
p20
(lp21
S'#__out__/LNX_TI_cgt2_70/rel_n5_camera_micron/si/rel_n5_camera_micron.cmd'
p22
asS'rel_n5_sibley'
p23
(lp24
S'#__out__/LNX_TI_cgt2_70/rel_n5_camera_micron/si/rel_n5_sibley.m0'
p25
asS'pre_generation'
p26
(lp27
S'#__out__/LNX_TI_cgt2_70/rel_n5_camera_micron/config/rv_swe.h'
p28
aS'#__out__/LNX_TI_cgt2_70/rel_n5_camera_micron/cdginc/mconst.cdg'
p29
asS'rel_n5_std_no_dl_no_mlun'
p30
(lp31
S'#__out__/LNX_TI_cgt2_70/rel_n5_camera_micron/si/rel_n5_std_no_dl_no_mlun.m0'
p32
as.