c__builtin__
set
p1
((lp2
S'__out__/LNX_TI_cgt2_70/rel_n5_camera_micron/csw-system/rtslib/v2_70/fread.o'
p3
aS'__out__/LNX_TI_cgt2_70/rel_n5_camera_micron/CS_ThirdParty/Beatnik/bae_sram.a'
p4
aS'__out__/LNX_TI_cgt2_70/rel_n5_camera_micron/CS_ThirdParty/Beatnik/code/services/bae/PAL_Impls/Riviera/PAL_EventNotifier_Riviera.o'
p5
aS'__out__/LNX_TI_cgt2_70/rel_n5_camera_micron/csw-system/rtslib/v2_70/ll_tofs16.o'
p6
aS'gpf/LIB/ccd_na7_db_ts3.lib'
p7
aS'__out__/LNX_TI_cgt2_70/rel_n5_camera_micron/csw-system/rtslib/v2_70/feof.o'
p8
aS'__out__/LNX_TI_cgt2_70/rel_n5_camera_micron/CS_ThirdParty/Beatnik/code/services/bae/Engine/Common/AC_DiskFileStream.o'
p9
aS'__out__/LNX_TI_cgt2_70/rel_n5_camera_micron/CS_ThirdParty/Emuzed/imaging/SourceCode/Code/Src_FLASH/Encoder/encoder_flash.o'
p10
aS'__out__/LNX_TI_cgt2_70/rel_n5_camera_micron/B_TIPS/btstack/profiles/a2dp/a2dp_sm.o'
p11
aS'__out__/LNX_TI_cgt2_70/rel_n5_camera_micron/csw-system/rtslib/v2_70/fs_cmp16.o'
p12
aS'__out__/LNX_TI_cgt2_70/rel_n5_camera_micron/csw-system/os/nucleus/1_15/plus/src/smd.o'
p13
aS'__out__/LNX_TI_cgt2_70/rel_n5_camera_micron/csw-system/rtslib/v2_70/ungetc.o'
p14
aS'__out__/LNX_TI_cgt2_70/rel_n5_camera_micron/CS_ThirdParty/Emuzed/jpeg_intram.a'
p15
aS'__out__/LNX_TI_cgt2_70/rel_n5_camera_micron/csw-system/os/nucleus/1_15/plus/src/csc.o'
p16
aS'__out__/LNX_TI_cgt2_70/rel_n5_camera_micron/csw-system/rtslib/v2_70/ll_tofs32.o'
p17
aS'__out__/LNX_TI_cgt2_70/rel_n5_camera_micron/B_TIPS/sbuild/bts.a'
p18
aS'__out__/LNX_TI_cgt2_70/rel_n5_camera_micron/csw-system/rtslib/v2_70/fd_cmp32.o'
p19
aS'__out__/LNX_TI_cgt2_70/rel_n5_camera_micron/csw-system/rtslib/v2_70/u_tofs16.o'
p20
aS'__out__/LNX_TI_cgt2_70/rel_n5_camera_micron/csw-system/rtslib/v2_70/mktime.o'
p21
aS'__out__/LNX_TI_cgt2_70/rel_n5_camera_micron/csw-system/rtslib/v2_70/ull_div32.o'
p22
aS'__out__/LNX_TI_cgt2_70/rel_n5_camera_micron/B_TIPS/btstack/profiles/hid/hid_intr.o'
p23
aS'__out__/LNX_TI_cgt2_70/rel_n5_camera_micron/CS_ThirdParty/Beatnik/code/services/bae/Engine/Common/AC_MemoryStream.o'
p24
aS'__out__/LNX_TI_cgt2_70/rel_n5_camera_micron/csw-system/rtslib/v2_70/fs_toll16.o'
p25
aS'__out__/LNX_TI_cgt2_70/rel_n5_camera_micron/CS_ThirdParty/Beatnik/code/services/bae/Engine/Common/AC_Song.o'
p26
aS'__out__/LNX_TI_cgt2_70/rel_n5_camera_micron/csw-system/rtslib/v2_70/fgetc.o'
p27
aS'__out__/LNX_TI_cgt2_70/rel_n5_camera_micron/si/rel_n5_camera_micron_merge.out'
p28
aS'__out__/LNX_TI_cgt2_70/rel_n5_camera_micron/csw-system/os/nucleus/1_15/plus/src/tcce.o'
p29
aS'__out__/LNX_TI_cgt2_70/rel_n5_camera_micron/csw-system/rtslib/v2_70/strcpy.o'
p30
aS'__out__/LNX_TI_cgt2_70/rel_n5_camera_micron/csw-system/rtslib/v2_70/strlen.o'
p31
aS'__out__/LNX_TI_cgt2_70/rel_n5_camera_micron/CS_ThirdParty/Beatnik/code/services/bae/Engine/Common/AC_DLSFilter.o'
p32
aS'__out__/LNX_TI_cgt2_70/rel_n5_camera_micron/csw-system/rtslib/v2_70/fs_div16.o'
p33
aS'__out__/LNX_TI_cgt2_70/rel_n5_camera_micron/csw-system/rtslib/v2_70/fs_cmp32.o'
p34
aS'__out__/LNX_TI_cgt2_70/rel_n5_camera_micron/csw-system/rtslib/v2_70/fs_tod32.o'
p35
aS'__out__/LNX_TI_cgt2_70/rel_n5_camera_micron/B_TIPS/btstack/add-ins/obex/obxbtstk.o'
p36
aS'__out__/LNX_TI_cgt2_70/rel_n5_camera_micron/CS_ThirdParty/Beatnik/code/services/bae/Engine/Common/ACC_G711AudioDecoder.o'
p37
aS'__out__/LNX_TI_cgt2_70/rel_n5_camera_micron/CS_ThirdParty/Beatnik/code/services/bae/Libraries/zlib_Source/inffast.o'
p38
aS'__out__/LNX_TI_cgt2_70/rel_n5_camera_micron/HSW_FMStack/stack/fmstack.a'
p39
aS'__out__/LNX_TI_cgt2_70/rel_n5_camera_micron/CS_ThirdParty/Beatnik/code/services/bae/Engine/Common/ACC_Chorus.o'
p40
aS'__out__/LNX_TI_cgt2_70/rel_n5_camera_micron/csw-system/rtslib/v2_70/atoll.o'
p41
aS'__out__/LNX_TI_cgt2_70/rel_n5_camera_micron/csw-system/rtslib/v2_70/vsnprintf.o'
p42
aS'__out__/LNX_TI_cgt2_70/rel_n5_camera_micron/CS_ThirdParty/Beatnik/code/services/bae/Engine/Common/ACC_SMAFMidiEventFeed.o'
p43
aS'__out__/LNX_TI_cgt2_70/rel_n5_camera_micron/si/rel_n5_camera_micron_merge.m0'
p44
aS'__out__/LNX_TI_cgt2_70/rel_n5_camera_micron/csw-system/rtslib/v2_70/fd_tos32.o'
p45
aS'__out__/LNX_TI_cgt2_70/rel_n5_camera_micron/csw-system/rtslib/v2_70/exp.o'
p46
aS'__out__/LNX_TI_cgt2_70/rel_n5_camera_micron/CS_ThirdParty/Beatnik/code/services/bae/Engine/Common/ACC_SimpleResFileHandler.o'
p47
aS'__out__/LNX_TI_cgt2_70/rel_n5_camera_micron/csw-system/os/nucleus/1_15/plus/src/iof.o'
p48
aS'__out__/LNX_TI_cgt2_70/rel_n5_camera_micron/B_TIPS/btstack/profiles/bpp/bppparse.o'
p49
aS'__out__/LNX_TI_cgt2_70/rel_n5_camera_micron/csw-system/rtslib/v2_70/strpbrk.o'
p50
aS'__out__/LNX_TI_cgt2_70/rel_n5_camera_micron/B_TIPS/btstack/add-ins/at/at_dun.o'
p51
aS'__out__/LNX_TI_cgt2_70/rel_n5_camera_micron/B_TIPS/btstack/hcitrans/transprt.o'
p52
aS'csw-system/os/nucleus/1_15/plus_specific/asm_defs.inc'
p53
aS'gpf/LIB/frame_na7_db_ir_ts3.lib'
p54
aS'__out__/LNX_TI_cgt2_70/rel_n5_camera_micron/B_TIPS/btstack/stack/rxbuff.o'
p55
aS'__out__/LNX_TI_cgt2_70/rel_n5_camera_micron/HSW_FMStack/stack/fm_drivers.o'
p56
aS'__out__/LNX_TI_cgt2_70/rel_n5_camera_micron/B_TIPS/btstack/profiles/pbap/pbap_sdp.o'
p57
aS'__out__/LNX_TI_cgt2_70/rel_n5_camera_micron/B_TIPS/btstack/profiles/spp/ring.o'
p58
aS'__out__/LNX_TI_cgt2_70/rel_n5_camera_micron/csw-system/rtslib/v2_70/new_afp.o'
p59
aS'__out__/LNX_TI_cgt2_70/rel_n5_camera_micron/CS_ThirdParty/Beatnik/code/services/bae/mb_version.o'
p60
aS'__out__/LNX_TI_cgt2_70/rel_n5_camera_micron/CS_ThirdParty/Beatnik/code/services/bae/Engine/Common_FLASH/AC_DLSInstrument.o'
p61
aS'__out__/LNX_TI_cgt2_70/rel_n5_camera_micron/csw-system/rtslib/v2_70/strncpy.o'
p62
aS'__out__/LNX_TI_cgt2_70/rel_n5_camera_micron/B_TIPS/btstack/stack/hci/hci_proc.o'
p63
aS'__out__/LNX_TI_cgt2_70/rel_n5_camera_micron/B_TIPS/btstack/profiles/common/conmgr.o'
p64
aS'__out__/LNX_TI_cgt2_70/rel_n5_camera_micron/csw-system/rtslib/v2_70/iscntrl.o'
p65
aS'__out__/LNX_TI_cgt2_70/rel_n5_camera_micron/CS_ThirdParty/Beatnik/code/services/bae/Engine/Client_API/Private/mBAE_AudibleCtrl.o'
p66
aS'__out__/LNX_TI_cgt2_70/rel_n5_camera_micron/CS_ThirdParty/Beatnik/code/services/bae/Engine/Common/AC_SampleDiskStreamed.o'
p67
aS'__out__/LNX_TI_cgt2_70/rel_n5_camera_micron/CS_ThirdParty/Beatnik/code/services/bae/Engine/Client_API/Private/mBAE_MidiPlayerBase.o'
p68
aS'__out__/LNX_TI_cgt2_70/rel_n5_camera_micron/CS_ThirdParty/Beatnik/code/services/bae/Engine/Common_FLASH/AC_DRCRun.o'
p69
aS'__out__/LNX_TI_cgt2_70/rel_n5_camera_micron/csw-system/rtslib/v2_70/isupper.o'
p70
aS'__out__/LNX_TI_cgt2_70/rel_n5_camera_micron/csw-system/os/nucleus/1_15/plus/src/dms.o'
p71
aS'__out__/LNX_TI_cgt2_70/rel_n5_camera_micron/csw-system/rtslib/v2_70/lldiv.o'
p72
aS'__out__/LNX_TI_cgt2_70/rel_n5_camera_micron/B_TIPS/btstack/stack/osapi.o'
p73
aS'__out__/LNX_TI_cgt2_70/rel_n5_camera_micron/CS_ThirdParty/Beatnik/code/services/bae/Engine/Common/AC_MemoryUse.o'
p74
aS'__out__/LNX_TI_cgt2_70/rel_n5_camera_micron/B_TIPS/btstack/stack/me/mescodat.o'
p75
aS'__out__/LNX_TI_cgt2_70/rel_n5_camera_micron/CS_ThirdParty/Beatnik/code/services/bae/Engine/Common_FLASH/AC_AudioFormat.o'
p76
aS'__out__/LNX_TI_cgt2_70/rel_n5_camera_micron/csw-system/rtslib/v2_70/array.o'
p77
aS'__out__/LNX_TI_cgt2_70/rel_n5_camera_micron/CS_ThirdParty/Beatnik/code/services/bae/PAL_Impls/Riviera/PAL_HostHardware_Riviera.o'
p78
aS'__out__/LNX_TI_cgt2_70/rel_n5_camera_micron/csw-system/rtslib/v2_70/memset16.o'
p79
aS'__out__/LNX_TI_cgt2_70/rel_n5_camera_micron/csw-system/rtslib/v2_70/toascii.o'
p80
aS'__out__/LNX_TI_cgt2_70/rel_n5_camera_micron/csw-system/rtslib/v2_70/fs_div32.o'
p81
aS'__out__/LNX_TI_cgt2_70/rel_n5_camera_micron/csw-system/rtslib/v2_70/strstr.o'
p82
aS'__out__/LNX_TI_cgt2_70/rel_n5_camera_micron/CS_ThirdParty/Beatnik/code/services/bae/Engine/Common/AC_InstrumentHandler.o'
p83
aS'__out__/LNX_TI_cgt2_70/rel_n5_camera_micron/B_TIPS/btstack/profiles/hs/hsg_util.o'
p84
aS'__out__/LNX_TI_cgt2_70/rel_n5_camera_micron/B_TIPS/btstack/btstack.a'
p85
aS'__out__/LNX_TI_cgt2_70/rel_n5_camera_micron/CS_ThirdParty/Beatnik/code/services/bae/Engine/Client_API/Private/mBAE_ResourceCtrl.o'
p86
aS'__out__/LNX_TI_cgt2_70/rel_n5_camera_micron/CS_ThirdParty/Emuzed/imaging/SourceCode/Code/Src_FLASH/ImageProcessing/Scaling_flash.o'
p87
aS'__out__/LNX_TI_cgt2_70/rel_n5_camera_micron/csw-system/rtslib/v2_70/memory.o'
p88
aS'__out__/LNX_TI_cgt2_70/rel_n5_camera_micron/B_TIPS/btstack/profiles/hs/hsg.o'
p89
aS'__out__/LNX_TI_cgt2_70/rel_n5_camera_micron/B_TIPS/btstack/stack/debug.o'
p90
aS'__out__/LNX_TI_cgt2_70/rel_n5_camera_micron/csw-system/rtslib/v2_70/clock.o'
p91
aS'__out__/LNX_TI_cgt2_70/rel_n5_camera_micron/CS_ThirdParty/Emuzed/imaging/SourceCode/Code/Src_FLASH/ImageProcessing/memory_ip_flash.o'
p92
aS'__out__/LNX_TI_cgt2_70/rel_n5_camera_micron/B_TIPS/btstack/profiles/a2dp/a2alloc.o'
p93
aS'__out__/LNX_TI_cgt2_70/rel_n5_camera_micron/CS_ThirdParty/Beatnik/code/services/bae/Engine/Common/AC_BankImage.o'
p94
aS'__out__/LNX_TI_cgt2_70/rel_n5_camera_micron/B_TIPS/btstack/profiles/hid/hid_util.o'
p95
aS'__out__/LNX_TI_cgt2_70/rel_n5_camera_micron/csw-system/rtslib/v2_70/perror.o'
p96
aS'__out__/LNX_TI_cgt2_70/rel_n5_camera_micron/B_TIPS/btstack/add-ins/obex/obstack.o'
p97
aS'__out__/LNX_TI_cgt2_70/rel_n5_camera_micron/csw-system/rtslib/v2_70/i_div32.o'
p98
aS'__out__/LNX_TI_cgt2_70/rel_n5_camera_micron/csw-system/rtslib/v2_70/new_af.o'
p99
aS'__out__/LNX_TI_cgt2_70/rel_n5_camera_micron/CS_ThirdParty/Beatnik/code/services/bae/Engine/Common/AC_AliasMap.o'
p100
aS'__out__/LNX_TI_cgt2_70/rel_n5_camera_micron/csw-system/rtslib/v2_70/purev.o'
p101
aS'__out__/LNX_TI_cgt2_70/rel_n5_camera_micron/csw-system/rtslib/v2_70/fs_tou32.o'
p102
aS'__out__/LNX_TI_cgt2_70/rel_n5_camera_micron/CS_ThirdParty/Beatnik/code/services/bae/Engine/Common/ACC_UTF16UnicodeDecoder.o'
p103
aS'__out__/LNX_TI_cgt2_70/rel_n5_camera_micron/B_TIPS/btstack/add-ins/at/atp.o'
p104
aS'__out__/LNX_TI_cgt2_70/rel_n5_camera_micron/csw-system/rtslib/v2_70/fflush.o'
p105
aS'__out__/LNX_TI_cgt2_70/rel_n5_camera_micron/CS_ThirdParty/Beatnik/code/services/bae/Engine/Common/AC_SCSU_Uncompress.o'
p106
aS'__out__/LNX_TI_cgt2_70/rel_n5_camera_micron/CS_ThirdParty/Beatnik/code/services/bae/Engine/Common_SRAM/AC_DLSVoiceInnerLoops.o'
p107
aS'__out__/LNX_TI_cgt2_70/rel_n5_camera_micron/csw-system/os/nucleus/1_15/plus/src/mbd.o'
p108
aS'__out__/LNX_TI_cgt2_70/rel_n5_camera_micron/csw-system/rtslib/v2_70/icall32.o'
p109
aS'__out__/LNX_TI_cgt2_70/rel_n5_camera_micron/csw-system/rtslib/v2_70/fd_toi16.o'
p110
aS'__out__/LNX_TI_cgt2_70/rel_n5_camera_micron/CS_ThirdParty/Beatnik/code/services/bae/Engine/Common_FLASH/AC_DLSMidiVoice.o'
p111
aS'__out__/LNX_TI_cgt2_70/rel_n5_camera_micron/csw-system/os/nucleus/1_15/plus/src/pid.o'
p112
aS'bmi/ZI/lib/tms470/zi8clib.lib'
p113
aS'__out__/LNX_TI_cgt2_70/rel_n5_camera_micron/CS_ThirdParty/Beatnik/code/services/bae/Engine/Common/AC_Sound.o'
p114
aS'__out__/LNX_TI_cgt2_70/rel_n5_camera_micron/csw-system/os/nucleus/1_15/plus/src/pise.o'
p115
aS'__out__/LNX_TI_cgt2_70/rel_n5_camera_micron/B_TIPS/btstack/profiles/spp/sppbuf.o'
p116
aS'__out__/LNX_TI_cgt2_70/rel_n5_camera_micron/CS_ThirdParty/Beatnik/code/services/bae/Engine/Common_FLASH/ACReal.o'
p117
aS'__out__/LNX_TI_cgt2_70/rel_n5_camera_micron/csw-system/rtslib/v2_70/fd_tou32.o'
p118
aS'csw-system/rtslib/v2_70/cstdio'
p119
aS'__out__/LNX_TI_cgt2_70/rel_n5_camera_micron/si/rel_n5_camera_micron.out'
p120
aS'gpf/LIB/osx_na7_db_ts3.lib'
p121
aS'__out__/LNX_TI_cgt2_70/rel_n5_camera_micron/B_TIPS/btstack/stack/rfcomm/rfc_fcs.o'
p122
aS'__out__/LNX_TI_cgt2_70/rel_n5_camera_micron/CS_ThirdParty/Beatnik/code/services/bae/Engine/Client_API/Private/mBAE_MidiFilePlayer.o'
p123
aS'__out__/LNX_TI_cgt2_70/rel_n5_camera_micron/csw-system/rtslib/v2_70/sinit.o'
p124
aS'__out__/LNX_TI_cgt2_70/rel_n5_camera_micron/CS_ThirdParty/Beatnik/code/services/bae/Engine/Common/ACC_BBIResFileHandler.o'
p125
aS'__out__/LNX_TI_cgt2_70/rel_n5_camera_micron/CS_ThirdParty/Beatnik/code/services/bae/Engine/Common/AC_RefCounted.o'
p126
aS'__out__/LNX_TI_cgt2_70/rel_n5_camera_micron/csw-system/rtslib/v2_70/isalpha.o'
p127
aS'__out__/LNX_TI_cgt2_70/rel_n5_camera_micron/CS_ThirdParty/Beatnik/code/services/bae/Libraries/zlib_Source/infcodes.o'
p128
aS'__out__/LNX_TI_cgt2_70/rel_n5_camera_micron/CS_ThirdParty/Beatnik/code/services/bae/Engine/Common/ACC_IMAAudioDecoder.o'
p129
aS'__out__/LNX_TI_cgt2_70/rel_n5_camera_micron/CS_ThirdParty/Beatnik/code/services/bae/Engine/Common_FLASH/AC_Sample.o'
p130
aS'__out__/LNX_TI_cgt2_70/rel_n5_camera_micron/csw-system/os/nucleus/1_15/plus/src/evc.o'
p131
aS'__out__/LNX_TI_cgt2_70/rel_n5_camera_micron/B_TIPS/btstack/profiles/sim/sim.o'
p132
aS'__out__/LNX_TI_cgt2_70/rel_n5_camera_micron/csw-system/rtslib/v2_70/typeinfo_.o'
p133
aS'__out__/LNX_TI_cgt2_70/rel_n5_camera_micron/CS_ThirdParty/Beatnik/code/services/bae/Engine/Client_API/Private/mBAE_OutputHardware.o'
p134
aS'__out__/LNX_TI_cgt2_70/rel_n5_camera_micron/CS_ThirdParty/Beatnik/code/services/bae/Engine/Client_API/Private/mBAE_InputHardware.o'
p135
aS'__out__/LNX_TI_cgt2_70/rel_n5_camera_micron/CS_ThirdParty/Beatnik/code/services/bae/Engine/Common/ACC_ASCIITextDecoder.o'
p136
aS'__out__/LNX_TI_cgt2_70/rel_n5_camera_micron/csw-system/rtslib/v2_70/memcpy16.o'
p137
aS'__out__/LNX_TI_cgt2_70/rel_n5_camera_micron/csw-system/rtslib/v2_70/defs.o'
p138
aS'__out__/LNX_TI_cgt2_70/rel_n5_camera_micron/B_TIPS/btstack/profiles/pbap/pbapobs.o'
p139
aS'__out__/LNX_TI_cgt2_70/rel_n5_camera_micron/CS_ThirdParty/Emuzed/imaging/SourceCode/Code/Asm_ROM/Encoder/FormMCUYUVPlanner.o'
p140
aS'__out__/LNX_TI_cgt2_70/rel_n5_camera_micron/csw-system/rtslib/v2_70/fd_toll16.o'
p141
aS'__out__/LNX_TI_cgt2_70/rel_n5_camera_micron/csw-system/os/nucleus/1_15/plus/src/pif.o'
p142
aS'__out__/LNX_TI_cgt2_70/rel_n5_camera_micron/csw-system/os/nucleus/1_15/plus/src/tcs.o'
p143
aS'__out__/LNX_TI_cgt2_70/rel_n5_camera_micron/csw-system/rtslib/v2_70/sscanf.o'
p144
aS'gpf/LIB/misc_na7_db_ir.lib'
p145
aS'__out__/LNX_TI_cgt2_70/rel_n5_camera_micron/csw-system/rtslib/v2_70/fd_tou16.o'
p146
aS'__out__/LNX_TI_cgt2_70/rel_n5_camera_micron/CS_ThirdParty/Beatnik/code/services/bae/Engine/Common/AC_InstInfo.o'
p147
aS'__out__/LNX_TI_cgt2_70/rel_n5_camera_micron/csw-system/rtslib/v2_70/isdigit.o'
p148
aS'__out__/LNX_TI_cgt2_70/rel_n5_camera_micron/CS_ThirdParty/Beatnik/code/services/bae/Engine/Common/AC_DRC.o'
p149
aS'__out__/LNX_TI_cgt2_70/rel_n5_camera_micron/csw-system/os/nucleus/1_15/plus/src/tmc.o'
p150
aS'__out__/LNX_TI_cgt2_70/rel_n5_camera_micron/CS_ThirdParty/Beatnik/code/services/bae/Engine/Common/AC_List.o'
p151
aS'__out__/LNX_TI_cgt2_70/rel_n5_camera_micron/CS_ThirdParty/Beatnik/code/services/bae/Engine/Common/ACC_AUParser.o'
p152
aS'__out__/LNX_TI_cgt2_70/rel_n5_camera_micron/csw-system/rtslib/v2_70/strchr.o'
p153
aS'__out__/LNX_TI_cgt2_70/rel_n5_camera_micron/B_TIPS/btstack/profiles/a2dp/a2dp_sdp.o'
p154
aS'__out__/LNX_TI_cgt2_70/rel_n5_camera_micron/B_TIPS/btstack/profiles/avctp/avctpcon.o'
p155
aS'__out__/LNX_TI_cgt2_70/rel_n5_camera_micron/B_TIPS/btstack/hcitrans/uart/hcill.o'
p156
aS'__out__/LNX_TI_cgt2_70/rel_n5_camera_micron/csw-system/rtslib/v2_70/remove.o'
p157
aS'__out__/LNX_TI_cgt2_70/rel_n5_camera_micron/csw-system/rtslib/v2_70/asin.o'
p158
aS'__out__/LNX_TI_cgt2_70/rel_n5_camera_micron/csw-system/rtslib/v2_70/i_tofd16.o'
p159
aS'__out__/LNX_TI_cgt2_70/rel_n5_camera_micron/csw-system/rtslib/v2_70/asctime.o'
p160
aS'__out__/LNX_TI_cgt2_70/rel_n5_camera_micron/csw-system/os/nucleus/1_15/plus/src/hid.o'
p161
aS'__out__/LNX_TI_cgt2_70/rel_n5_camera_micron/csw-system/rtslib/v2_70/abs.o'
p162
aS'__out__/LNX_TI_cgt2_70/rel_n5_camera_micron/csw-system/os/nucleus/1_15/plus/src/rlc.o'
p163
aS'__out__/LNX_TI_cgt2_70/rel_n5_camera_micron/CS_ThirdParty/Emuzed/imaging/SourceCode/Code/Src_FLASH/Decoder/jpeg_dec_api_flash.o'
p164
aS'__out__/LNX_TI_cgt2_70/rel_n5_camera_micron/CS_ThirdParty/Beatnik/code/services/bae/Engine/Client_API/Private/mBAE_BankResource.o'
p165
aS'__out__/LNX_TI_cgt2_70/rel_n5_camera_micron/CS_ThirdParty/Beatnik/code/services/bae/Engine/Common/ACC_DLSResFileHandler.o'
p166
aS'__out__/LNX_TI_cgt2_70/rel_n5_camera_micron/csw-system/rtslib/v2_70/i_tofs32.o'
p167
aS'__out__/LNX_TI_cgt2_70/rel_n5_camera_micron/csw-system/rtslib/v2_70/ispunct.o'
p168
aS'__out__/LNX_TI_cgt2_70/rel_n5_camera_micron/csw-system/os/nucleus/1_15/plus/src/smce.o'
p169
aS'__out__/LNX_TI_cgt2_70/rel_n5_camera_micron/csw-system/rtslib/v2_70/fs_toi16.o'
p170
aS'__out__/LNX_TI_cgt2_70/rel_n5_camera_micron/CS_ThirdParty/Beatnik/bae.a'
p171
aS'gpf/LIB/tif_na7_db_ir.lib'
p172
aS'__out__/LNX_TI_cgt2_70/rel_n5_camera_micron/CS_ThirdParty/Beatnik/code/services/bae/Engine/Common_FLASH/AC_DLSEnvelope.o'
p173
aS'__out__/LNX_TI_cgt2_70/rel_n5_camera_micron/csw-system/rtslib/v2_70/strcoll.o'
p174
aS'__out__/LNX_TI_cgt2_70/rel_n5_camera_micron/csw-system/rtslib/v2_70/sqrt.o'
p175
aS'chipsetsw/system/rtslib/v2_70/rts16le_int_ram.lib'
p176
aS'__out__/LNX_TI_cgt2_70/rel_n5_camera_micron/csw-system/os/nucleus/1_15/plus/src/tci.o'
p177
aS'__out__/LNX_TI_cgt2_70/rel_n5_camera_micron/B_TIPS/btstack/profiles/hf/hfg_sm.o'
p178
aS'__out__/LNX_TI_cgt2_70/rel_n5_camera_micron/B_TIPS/btstack/stack/hci/hci_util.o'
p179
aS'__out__/LNX_TI_cgt2_70/rel_n5_camera_micron/CS_ThirdParty/Beatnik/code/services/bae/Engine/Common/AC_EventMgr.o'
p180
aS'__out__/LNX_TI_cgt2_70/rel_n5_camera_micron/CS_ThirdParty/Beatnik/code/services/bae/Engine/Common/AC_Sha1.o'
p181
aS'__out__/LNX_TI_cgt2_70/rel_n5_camera_micron/csw-system/rtslib/v2_70/vsprintf.o'
p182
aS'__out__/LNX_TI_cgt2_70/rel_n5_camera_micron/B_TIPS/btstack/stack/me/meacc.o'
p183
aS'__out__/LNX_TI_cgt2_70/rel_n5_camera_micron/csw-system/rtslib/v2_70/strtoul.o'
p184
aS'__out__/LNX_TI_cgt2_70/rel_n5_camera_micron/B_TIPS/btstack/hcitrans/modinit/TI/tiinit.o'
p185
aS'__out__/LNX_TI_cgt2_70/rel_n5_camera_micron/B_TIPS/btstack/profiles/hf/hfg.o'
p186
aS'__out__/LNX_TI_cgt2_70/rel_n5_camera_micron/CS_ThirdParty/Beatnik/code/services/bae/Libraries/zlib_Source/adler32.o'
p187
aS'CS_ThirdParty/Datalight/libs/reliance.lib'
p188
aS'__out__/LNX_TI_cgt2_70/rel_n5_camera_micron/csw-system/rtslib/v2_70/memccpy.o'
p189
aS'__out__/LNX_TI_cgt2_70/rel_n5_camera_micron/CS_ThirdParty/Beatnik/code/services/bae/Engine/Client_API/Private/mBAE_AudioPlayerBase.o'
p190
aS'__out__/LNX_TI_cgt2_70/rel_n5_camera_micron/CS_ThirdParty/Beatnik/code/services/bae/Engine/Common/ACC_Parser.o'
p191
aS'__out__/LNX_TI_cgt2_70/rel_n5_camera_micron/csw-system/rtslib/v2_70/strspn.o'
p192
aS'__out__/LNX_TI_cgt2_70/rel_n5_camera_micron/csw-system/rtslib/v2_70/strtoll.o'
p193
aS'__out__/LNX_TI_cgt2_70/rel_n5_camera_micron/CS_ThirdParty/Beatnik/code/services/bae/Engine/Common/AC_AudioBuffer.o'
p194
aS'__out__/LNX_TI_cgt2_70/rel_n5_camera_micron/csw-system/rtslib/v2_70/fputc.o'
p195
aS'__out__/LNX_TI_cgt2_70/rel_n5_camera_micron/B_TIPS/btstack/profiles/hid/hidalloc.o'
p196
aS'__out__/LNX_TI_cgt2_70/rel_n5_camera_micron/CS_ThirdParty/Beatnik/code/services/bae/Engine/Common_FLASH/AC_Mixer.o'
p197
aS'__out__/LNX_TI_cgt2_70/rel_n5_camera_micron/csw-system/rtslib/v2_70/printf.o'
p198
aS'__out__/LNX_TI_cgt2_70/rel_n5_camera_micron/B_TIPS/btstack/add-ins/obex/obparse.o'
p199
aS'__out__/LNX_TI_cgt2_70/rel_n5_camera_micron/csw-system/rtslib/v2_70/tmpnam.o'
p200
aS'__out__/LNX_TI_cgt2_70/rel_n5_camera_micron/csw-system/os/nucleus/1_15/plus/src/evi.o'
p201
aS'__out__/LNX_TI_cgt2_70/rel_n5_camera_micron/csw-system/rtslib/v2_70/modf.o'
p202
aS'__out__/LNX_TI_cgt2_70/rel_n5_camera_micron/CS_ThirdParty/Beatnik/code/services/bae/Engine/Common/ACC_WAVEResFileHandler.o'
p203
aS'__out__/LNX_TI_cgt2_70/rel_n5_camera_micron/HSW_FMStack/stack/fm_ti_init_script.o'
p204
aS'__out__/LNX_TI_cgt2_70/rel_n5_camera_micron/CS_ThirdParty/Beatnik/code/services/bae/Engine/Common/AC_RawSample.o'
p205
aS'__out__/LNX_TI_cgt2_70/rel_n5_camera_micron/CS_ThirdParty/Beatnik/code/services/bae/Engine/Common/AC_Utils.o'
p206
aS'__out__/LNX_TI_cgt2_70/rel_n5_camera_micron/csw-system/os/nucleus/1_15/plus/src/quce.o'
p207
aS'__out__/LNX_TI_cgt2_70/rel_n5_camera_micron/CS_ThirdParty/Beatnik/code/services/bae/Engine/Common/AC_ComponentMgrStaticInit.o'
p208
aS'__out__/LNX_TI_cgt2_70/rel_n5_camera_micron/CS_ThirdParty/Beatnik/code/services/bae/Engine/Common/AC_MidiEvent.o'
p209
aS'gpf/LIB/frame_na7_db_ir.lib'
p210
aS'__out__/LNX_TI_cgt2_70/rel_n5_camera_micron/csw-system/rtslib/v2_70/del_af.o'
p211
aS'__out__/LNX_TI_cgt2_70/rel_n5_camera_micron/CS_ThirdParty/Beatnik/code/services/bae/Engine/Client_API/Private/mBAE_System.o'
p212
aS'__out__/LNX_TI_cgt2_70/rel_n5_camera_micron/B_TIPS/btstack/stack/radiomgr.o'
p213
aS'__out__/LNX_TI_cgt2_70/rel_n5_camera_micron/csw-system/rtslib/v2_70/cos.o'
p214
aS'__out__/LNX_TI_cgt2_70/rel_n5_camera_micron/B_TIPS/btstack/hcitrans/uart/uarttran.o'
p215
aS'__out__/LNX_TI_cgt2_70/rel_n5_camera_micron/B_TIPS/btstack/stack/sdp/sdpserv.o'
p216
aS'__out__/LNX_TI_cgt2_70/rel_n5_camera_micron/csw-system/rtslib/v2_70/ll_lsr16.o'
p217
aS'__out__/LNX_TI_cgt2_70/rel_n5_camera_micron/B_TIPS/btstack/stack/btalloc.o'
p218
aS'__out__/LNX_TI_cgt2_70/rel_n5_camera_micron/CS_ThirdParty/Beatnik/code/services/bae/Engine/Common/PAL.o'
p219
aS'__out__/LNX_TI_cgt2_70/rel_n5_camera_micron/CS_ThirdParty/Beatnik/code/services/bae/Engine/Common/ACC_SMSMidiEventFeed.o'
p220
aS'__out__/LNX_TI_cgt2_70/rel_n5_camera_micron/csw-system/os/nucleus/1_15/plus/src/smc.o'
p221
aS'__out__/LNX_TI_cgt2_70/rel_n5_camera_micron/HSW_FMStack/stack/fms_transport.o'
p222
aS'__out__/LNX_TI_cgt2_70/rel_n5_camera_micron/csw-system/rtslib/v2_70/ull_tofd16.o'
p223
aS'__out__/LNX_TI_cgt2_70/rel_n5_camera_micron/CS_ThirdParty/Beatnik/code/services/bae/Libraries/zlib_Source/infblock.o'
p224
aS'__out__/LNX_TI_cgt2_70/rel_n5_camera_micron/csw-system/os/nucleus/1_15/plus/src/dmi.o'
p225
aS'__out__/LNX_TI_cgt2_70/rel_n5_camera_micron/CS_ThirdParty/Beatnik/code/services/bae/Engine/Common/ACC_IgorDecryptor.o'
p226
aS'__out__/LNX_TI_cgt2_70/rel_n5_camera_micron/csw-system/os/nucleus/1_15/plus/src/mbc.o'
p227
aS'__out__/LNX_TI_cgt2_70/rel_n5_camera_micron/csw-system/rtslib/v2_70/_lock.o'
p228
aS'__out__/LNX_TI_cgt2_70/rel_n5_camera_micron/csw-system/rtslib/v2_70/fsetpos.o'
p229
aS'__out__/LNX_TI_cgt2_70/rel_n5_camera_micron/csw-system/os/nucleus/1_15/plus/src/tcse.o'
p230
aS'__out__/LNX_TI_cgt2_70/rel_n5_camera_micron/B_TIPS/btstack/profiles/sim/sim_util.o'
p231
aS'__out__/LNX_TI_cgt2_70/rel_n5_camera_micron/B_TIPS/btstack/profiles/hf/hfg_at.o'
p232
aS'__out__/LNX_TI_cgt2_70/rel_n5_camera_micron/csw-system/rtslib/v2_70/_io_perm.o'
p233
aS'__out__/LNX_TI_cgt2_70/rel_n5_camera_micron/csw-system/rtslib/v2_70/ll_asr16.o'
p234
aS'__out__/LNX_TI_cgt2_70/rel_n5_camera_micron/csw-system/rtslib/v2_70/time.o'
p235
aS'__out__/LNX_TI_cgt2_70/rel_n5_camera_micron/CS_ThirdParty/Beatnik/code/services/bae/bae_handle_timer.o'
p236
aS'__out__/LNX_TI_cgt2_70/rel_n5_camera_micron/csw-system/rtslib/v2_70/new_sofp.o'
p237
aS'__out__/LNX_TI_cgt2_70/rel_n5_camera_micron/CS_ThirdParty/Emuzed/imaging/SourceCode/Code/Src_FLASH/ImageProcessing/rotation_yuv_flash.o'
p238
aS'__out__/LNX_TI_cgt2_70/rel_n5_camera_micron/B_TIPS/btstack/stack/l2cap/l2cap.o'
p239
aS'__out__/LNX_TI_cgt2_70/rel_n5_camera_micron/csw-system/rtslib/v2_70/bsearch.o'
p240
aS'__out__/LNX_TI_cgt2_70/rel_n5_camera_micron/CS_ThirdParty/Beatnik/code/services/bae/Engine/Client_API/Private/mBAE_XMFCollection.o'
p241
aS'__out__/LNX_TI_cgt2_70/rel_n5_camera_micron/CS_ThirdParty/Beatnik/code/services/bae/Engine/Common/ACC_UTF8UnicodeDecoder.o'
p242
aS'__out__/LNX_TI_cgt2_70/rel_n5_camera_micron/CS_ThirdParty/Beatnik/code/services/bae/Engine/Common/ACC_SMAFToDLSParser.o'
p243
aS'__out__/LNX_TI_cgt2_70/rel_n5_camera_micron/csw-system/rtslib/v2_70/strcat.o'
p244
aS'gpf/LIB/misc_na7_db_fl_ts3.lib'
p245
aS'CS_ThirdParty/Datalight/libs/flashfx.lib'
p246
aS'__out__/LNX_TI_cgt2_70/rel_n5_camera_micron/csw-system/rtslib/v2_70/assert.o'
p247
aS'__out__/LNX_TI_cgt2_70/rel_n5_camera_micron/CS_ThirdParty/Beatnik/code/services/bae/Engine/Common/AC_Midi.o'
p248
aS'__out__/LNX_TI_cgt2_70/rel_n5_camera_micron/CS_ThirdParty/Beatnik/code/services/bae/Engine/Common/ACC_MPEGParser.o'
p249
aS'__out__/LNX_TI_cgt2_70/rel_n5_camera_micron/csw-system/os/nucleus/1_15/plus/src/ioi.o'
p250
aS'__out__/LNX_TI_cgt2_70/rel_n5_camera_micron/CS_ThirdParty/Beatnik/code/services/bae/Engine/Common/AC_SampleMgr.o'
p251
aS'__out__/LNX_TI_cgt2_70/rel_n5_camera_micron/CS_ThirdParty/Beatnik/code/services/bae/Engine/Common/ACC_AIFFParser.o'
p252
aS'__out__/LNX_TI_cgt2_70/rel_n5_camera_micron/B_TIPS/btstack/profiles/hs/hsg_sm.o'
p253
aS'__out__/LNX_TI_cgt2_70/rel_n5_camera_micron/csw-system/os/nucleus/1_15/plus/src/dmf.o'
p254
aS'__out__/LNX_TI_cgt2_70/rel_n5_camera_micron/csw-system/rtslib/v2_70/strxfrm.o'
p255
aS'__out__/LNX_TI_cgt2_70/rel_n5_camera_micron/csw-system/rtslib/v2_70/cosh.o'
p256
aS'__out__/LNX_TI_cgt2_70/rel_n5_camera_micron/csw-system/rtslib/v2_70/i_div16.o'
p257
aS'__out__/LNX_TI_cgt2_70/rel_n5_camera_micron/csw-system/rtslib/v2_70/del_afp.o'
p258
aS'__out__/LNX_TI_cgt2_70/rel_n5_camera_micron/CS_ThirdParty/Beatnik/code/services/bae/Engine/Common/AC_OutputHardware.o'
p259
aS'__out__/LNX_TI_cgt2_70/rel_n5_camera_micron/B_TIPS/btstack/stack/ddb.o'
p260
aS'__out__/LNX_TI_cgt2_70/rel_n5_camera_micron/CS_ThirdParty/Beatnik/code/services/bae/Engine/Common/ACC_SMAFResFileHandler.o'
p261
aS'__out__/LNX_TI_cgt2_70/rel_n5_camera_micron/csw-system/rtslib/v2_70/ll_asr32.o'
p262
aS'__out__/LNX_TI_cgt2_70/rel_n5_camera_micron/B_TIPS/btstack/profiles/hf/hfgalloc.o'
p263
aS'__out__/LNX_TI_cgt2_70/rel_n5_camera_micron/csw-system/os/nucleus/1_15/plus/src/pis.o'
p264
aS'__out__/LNX_TI_cgt2_70/rel_n5_camera_micron/csw-system/rtslib/v2_70/ull_tofd32.o'
p265
aS'__out__/LNX_TI_cgt2_70/rel_n5_camera_micron/CS_ThirdParty/Emuzed/imaging/SourceCode/Code/Src_FLASH/Encoder/mem_wrapper_jpegenc_flash.o'
p266
aS'__out__/LNX_TI_cgt2_70/rel_n5_camera_micron/csw-system/rtslib/v2_70/stkdepth_vars.o'
p267
aS'__out__/LNX_TI_cgt2_70/rel_n5_camera_micron/csw-system/rtslib/v2_70/strcspn.o'
p268
aS'__out__/LNX_TI_cgt2_70/rel_n5_camera_micron/CS_ThirdParty/Beatnik/code/services/bae/Engine/Client_API/Private/mBAE_TerminalCtrl.o'
p269
aS'__out__/LNX_TI_cgt2_70/rel_n5_camera_micron/csw-system/rtslib/v2_70/ull_tofs32.o'
p270
aS'__out__/LNX_TI_cgt2_70/rel_n5_camera_micron/CS_ThirdParty/Beatnik/code/services/bae/Engine/Common/ACC_SingleByteTextDecoder.o'
p271
aS'__out__/LNX_TI_cgt2_70/rel_n5_camera_micron/csw-system/rtslib/v2_70/setbuf.o'
p272
aS'__out__/LNX_TI_cgt2_70/rel_n5_camera_micron/csw-system/rtslib/v2_70/i_tofd32.o'
p273
aS'__out__/LNX_TI_cgt2_70/rel_n5_camera_micron/csw-system/rtslib/v2_70/isgraph.o'
p274
aS'EBTIPS/bthal/sbc_encoder/lib/sbc_encoder.a'
p275
aS'__out__/LNX_TI_cgt2_70/rel_n5_camera_micron/CS_ThirdParty/Beatnik/code/services/bae/bae_file_api.o'
p276
aS'__out__/LNX_TI_cgt2_70/rel_n5_camera_micron/csw-system/rtslib/v2_70/trgdrv.o'
p277
aS'__out__/LNX_TI_cgt2_70/rel_n5_camera_micron/CS_ThirdParty/Beatnik/code/services/bae/Engine/Common/AC_Array.o'
p278
aS'__out__/LNX_TI_cgt2_70/rel_n5_camera_micron/CS_ThirdParty/Emuzed/imaging/SourceCode/Code/Src_FLASH/Encoder/JpegEncoder_jmptab_flash.o'
p279
aS'__out__/LNX_TI_cgt2_70/rel_n5_camera_micron/CS_ThirdParty/Beatnik/code/services/bae/Engine/Common/ACC_RTXMidiEventFeed.o'
p280
aS'__out__/LNX_TI_cgt2_70/rel_n5_camera_micron/csw-system/rtslib/v2_70/fs_toull32.o'
p281
aS'__out__/LNX_TI_cgt2_70/rel_n5_camera_micron/csw-system/rtslib/v2_70/fs_add16.o'
p282
aS'EBTIPS/bthal/src/lib/src.a'
p283
aS'__out__/LNX_TI_cgt2_70/rel_n5_camera_micron/CS_ThirdParty/Emuzed/imaging/SourceCode/Code/Src_FLASH/Decoder/table_flash.o'
p284
aS'__out__/LNX_TI_cgt2_70/rel_n5_camera_micron/csw-system/os/nucleus/1_15/plus/src/pice.o'
p285
aS'__out__/LNX_TI_cgt2_70/rel_n5_camera_micron/CS_ThirdParty/Beatnik/code/services/bae/bae_api.o'
p286
aS'__out__/LNX_TI_cgt2_70/rel_n5_camera_micron/B_TIPS/btstack/stack/rfcomm/rfc_sm.o'
p287
aS'__out__/LNX_TI_cgt2_70/rel_n5_camera_micron/B_TIPS/btstack/profiles/bip/bipparse.o'
p288
aS'__out__/LNX_TI_cgt2_70/rel_n5_camera_micron/csw-system/rtslib/v2_70/errno.o'
p289
aS'__out__/LNX_TI_cgt2_70/rel_n5_camera_micron/B_TIPS/btstack/add-ins/at/at_sms.o'
p290
aS'__out__/LNX_TI_cgt2_70/rel_n5_camera_micron/CS_ThirdParty/Emuzed/imaging/SourceCode/Code/Src_FLASH/Decoder/JpegDecoder_jmptab_flash.o'
p291
aS'csw-system/rtslib/v2_70/cstdlib'
p292
aS'__out__/LNX_TI_cgt2_70/rel_n5_camera_micron/csw-system/rtslib/v2_70/fs_add32.o'
p293
aS'__out__/LNX_TI_cgt2_70/rel_n5_camera_micron/CS_ThirdParty/Beatnik/code/services/bae/Engine/Common/ACC_WAVEParser.o'
p294
aS'csw-system/rtslib/v2_70/typeinfo'
p295
aS'__out__/LNX_TI_cgt2_70/rel_n5_camera_micron/csw-system/rtslib/v2_70/fs_toull16.o'
p296
aS'__out__/LNX_TI_cgt2_70/rel_n5_camera_micron/csw-system/rtslib/v2_70/memchr.o'
p297
aS'__out__/LNX_TI_cgt2_70/rel_n5_camera_micron/CS_ThirdParty/Beatnik/code/services/bae/Engine/Common/ACC_IgorDecompressor.o'
p298
aS'__out__/LNX_TI_cgt2_70/rel_n5_camera_micron/csw-system/os/nucleus/1_15/plus/src/rld.o'
p299
aS'__out__/LNX_TI_cgt2_70/rel_n5_camera_micron/csw-system/rtslib/v2_70/qsort.o'
p300
aS'__out__/LNX_TI_cgt2_70/rel_n5_camera_micron/B_TIPS/btstack/stack/me/mescoif.o'
p301
aS'__out__/LNX_TI_cgt2_70/rel_n5_camera_micron/csw-system/rtslib/v2_70/rand.o'
p302
aS'gpf/LIB/tif_na7_db_ir_ts3.lib'
p303
aS'__out__/LNX_TI_cgt2_70/rel_n5_camera_micron/CS_ThirdParty/Beatnik/code/services/bae/Engine/Common/AC_ResourceTOC.o'
p304
aS'__out__/LNX_TI_cgt2_70/rel_n5_camera_micron/csw-system/rtslib/v2_70/fd_mul16.o'
p305
aS'__out__/LNX_TI_cgt2_70/rel_n5_camera_micron/CS_ThirdParty/Beatnik/code/services/bae/Engine/Common/AC_DLSInstrumentMgr.o'
p306
aS'__out__/LNX_TI_cgt2_70/rel_n5_camera_micron/CS_ThirdParty/Beatnik/code/services/bae/Engine/Common_FLASH/AC_DLSVoiceLoops.o'
p307
aS'__out__/LNX_TI_cgt2_70/rel_n5_camera_micron/CS_ThirdParty/Beatnik/code/services/bae/midi_rom_jmptab.o'
p308
aS'gpf/LIB/remu_na7_db_ts3.lib'
p309
aS'__out__/LNX_TI_cgt2_70/rel_n5_camera_micron/csw-system/os/nucleus/1_15/plus/src/pmi.o'
p310
aS'__out__/LNX_TI_cgt2_70/rel_n5_camera_micron/csw-system/rtslib/v2_70/fd_div16.o'
p311
aS'__out__/LNX_TI_cgt2_70/rel_n5_camera_micron/csw-system/rtslib/v2_70/fwrite.o'
p312
aS'__out__/LNX_TI_cgt2_70/rel_n5_camera_micron/csw-system/rtslib/v2_70/stkchk32.o'
p313
aS'__out__/LNX_TI_cgt2_70/rel_n5_camera_micron/B_TIPS/btstack/stack/sdp/sdp.o'
p314
aS'__out__/LNX_TI_cgt2_70/rel_n5_camera_micron/CS_ThirdParty/Beatnik/code/services/bae/bae_pei.o'
p315
aS'__out__/LNX_TI_cgt2_70/rel_n5_camera_micron/CS_ThirdParty/Beatnik/code/services/bae/Engine/Client_API/Private/mBAE_Private.o'
p316
aS'__out__/LNX_TI_cgt2_70/rel_n5_camera_micron/csw-system/os/nucleus/1_15/plus/src/qus.o'
p317
aS'__out__/LNX_TI_cgt2_70/rel_n5_camera_micron/CS_ThirdParty/Emuzed/imaging/SourceCode/Code/Src_FLASH/jpeg_mem.o'
p318
aS'__out__/LNX_TI_cgt2_70/rel_n5_camera_micron/CS_ThirdParty/Beatnik/code/services/bae/Engine/Common/ACC_AUResFileHandler.o'
p319
aS'__out__/LNX_TI_cgt2_70/rel_n5_camera_micron/csw-system/rtslib/v2_70/vprintf.o'
p320
aS'__out__/LNX_TI_cgt2_70/rel_n5_camera_micron/csw-system/rtslib/v2_70/islower.o'
p321
aS'__out__/LNX_TI_cgt2_70/rel_n5_camera_micron/CS_ThirdParty/Beatnik/code/services/bae/Engine/Common_FLASH/AC_SampleBuffered.o'
p322
aS'__out__/LNX_TI_cgt2_70/rel_n5_camera_micron/csw-system/rtslib/v2_70/u_div16.o'
p323
aS'__out__/LNX_TI_cgt2_70/rel_n5_camera_micron/csw-system/os/nucleus/1_15/plus/src/hii.o'
p324
aS'__out__/LNX_TI_cgt2_70/rel_n5_camera_micron/B_TIPS/btstack/profiles/sim/sim_sdp.o'
p325
aS'__out__/LNX_TI_cgt2_70/rel_n5_camera_micron/csw-system/rtslib/v2_70/_bufread.o'
p326
aS'__out__/LNX_TI_cgt2_70/rel_n5_camera_micron/csw-system/rtslib/v2_70/atol.o'
p327
aS'__out__/LNX_TI_cgt2_70/rel_n5_camera_micron/csw-system/rtslib/v2_70/fd_mul32.o'
p328
aS'__out__/LNX_TI_cgt2_70/rel_n5_camera_micron/CS_ThirdParty/Beatnik/code/services/bae/Engine/Common/AC_EncryptedStream.o'
p329
aS'__out__/LNX_TI_cgt2_70/rel_n5_camera_micron/csw-system/rtslib/v2_70/atan.o'
p330
aS'__out__/LNX_TI_cgt2_70/rel_n5_camera_micron/HSW_FMStack/stack/fm_os.o'
p331
aS'__out__/LNX_TI_cgt2_70/rel_n5_camera_micron/CS_ThirdParty/Emuzed/imaging/SourceCode/Code/Src_FLASH/ImageProcessing/transcoding_flash.o'
p332
aS'__out__/LNX_TI_cgt2_70/rel_n5_camera_micron/CS_ThirdParty/Emuzed/imaging/SourceCode/Code/Src_FLASH/Decoder/colorconv_flash.o'
p333
aS'__out__/LNX_TI_cgt2_70/rel_n5_camera_micron/csw-system/rtslib/v2_70/fd_toll32.o'
p334
aS'__out__/LNX_TI_cgt2_70/rel_n5_camera_micron/csw-system/os/nucleus/1_15/plus/src/tmd.o'
p335
aS'__out__/LNX_TI_cgt2_70/rel_n5_camera_micron/CS_ThirdParty/Beatnik/code/services/bae/Engine/Common/AC_ResourceID.o'
p336
aS'__out__/LNX_TI_cgt2_70/rel_n5_camera_micron/csw-system/os/nucleus/1_15/plus/src/evf.o'
p337
aS'__out__/LNX_TI_cgt2_70/rel_n5_camera_micron/B_TIPS/btstack/profiles/ftp/ftp.o'
p338
aS'__out__/LNX_TI_cgt2_70/rel_n5_camera_micron/B_TIPS/btstack/stack/utils.o'
p339
aS'__out__/LNX_TI_cgt2_70/rel_n5_camera_micron/CS_ThirdParty/Beatnik/code/services/bae/Engine/Common/AC_MetadataAgent.o'
p340
aS'__out__/LNX_TI_cgt2_70/rel_n5_camera_micron/CS_ThirdParty/Beatnik/code/services/bae/Engine/Client_API/Private/mBAE_MetadataCtrl.o'
p341
aS'__out__/LNX_TI_cgt2_70/rel_n5_camera_micron/csw-system/os/nucleus/1_15/plus/src/evd.o'
p342
aS'__out__/LNX_TI_cgt2_70/rel_n5_camera_micron/csw-system/rtslib/v2_70/strerror.o'
p343
aS'__out__/LNX_TI_cgt2_70/rel_n5_camera_micron/csw-system/rtslib/v2_70/rtti.o'
p344
aS'__out__/LNX_TI_cgt2_70/rel_n5_camera_micron/csw-system/os/nucleus/1_15/plus/src/iod.o'
p345
aS'__out__/LNX_TI_cgt2_70/rel_n5_camera_micron/csw-system/rtslib/v2_70/fd_add32.o'
p346
aS'__out__/LNX_TI_cgt2_70/rel_n5_camera_micron/csw-system/os/nucleus/1_15/plus_specific/tmt.o'
p347
aS'__out__/LNX_TI_cgt2_70/rel_n5_camera_micron/CS_ThirdParty/Beatnik/code/services/bae/bae_utils.o'
p348
aS'__out__/LNX_TI_cgt2_70/rel_n5_camera_micron/csw-system/os/nucleus/1_15/plus/src/inc.o'
p349
aS'__out__/LNX_TI_cgt2_70/rel_n5_camera_micron/B_TIPS/btstack/profiles/goep/goep.o'
p350
aS'__out__/LNX_TI_cgt2_70/rel_n5_camera_micron/B_TIPS/btstack/profiles/hs/hsgalloc.o'
p351
aS'__out__/LNX_TI_cgt2_70/rel_n5_camera_micron/B_TIPS/btstack/profiles/avdtp/avdtpcon.o'
p352
aS'__out__/LNX_TI_cgt2_70/rel_n5_camera_micron/csw-system/rtslib/v2_70/ctime_.o'
p353
aS'__out__/LNX_TI_cgt2_70/rel_n5_camera_micron/CS_ThirdParty/Beatnik/code/services/bae/Engine/Common/AC_ResourceMgr.o'
p354
aS'__out__/LNX_TI_cgt2_70/rel_n5_camera_micron/B_TIPS/btstack/stack/rfcomm/rfcomm.o'
p355
aS'__out__/LNX_TI_cgt2_70/rel_n5_camera_micron/csw-system/os/nucleus/1_15/plus/src/quse.o'
p356
aS'__out__/LNX_TI_cgt2_70/rel_n5_camera_micron/csw-system/rtslib/v2_70/ll_tofd16.o'
p357
aS'__out__/LNX_TI_cgt2_70/rel_n5_camera_micron/csw-system/rtslib/v2_70/ll_tofd32.o'
p358
aS'__out__/LNX_TI_cgt2_70/rel_n5_camera_micron/csw-system/rtslib/v2_70/toupper.o'
p359
aS'__out__/LNX_TI_cgt2_70/rel_n5_camera_micron/csw-system/rtslib/v2_70/acos.o'
p360
aS'__out__/LNX_TI_cgt2_70/rel_n5_camera_micron/CS_ThirdParty/Beatnik/code/services/bae/Engine/Common_FLASH/AC_DLSRenderer.o'
p361
aS'__out__/LNX_TI_cgt2_70/rel_n5_camera_micron/B_TIPS/btstack/stack/me/me.o'
p362
aS'__out__/LNX_TI_cgt2_70/rel_n5_camera_micron/CS_ThirdParty/Beatnik/code/services/bae/Engine/Common/ACCommon.o'
p363
aS'__out__/LNX_TI_cgt2_70/rel_n5_camera_micron/csw-system/os/nucleus/1_15/plus/src/smse.o'
p364
aS'__out__/LNX_TI_cgt2_70/rel_n5_camera_micron/CS_ThirdParty/Beatnik/code/services/bae/Engine/Common/AC_TempoMap.o'
p365
aS'__out__/LNX_TI_cgt2_70/rel_n5_camera_micron/B_TIPS/btstack/add-ins/obex/obexauth.o'
p366
aS'__out__/LNX_TI_cgt2_70/rel_n5_camera_micron/CS_ThirdParty/Emuzed/imaging/SourceCode/Code/Src_FLASH/Decoder/texture_decode2_ram.o'
p367
aS'__out__/LNX_TI_cgt2_70/rel_n5_camera_micron/B_TIPS/btstack/stack/me/mesco.o'
p368
aS'__out__/LNX_TI_cgt2_70/rel_n5_camera_micron/B_TIPS/btstack/profiles/common/avtp.o'
p369
aS'__out__/LNX_TI_cgt2_70/rel_n5_camera_micron/csw-system/rtslib/v2_70/fd_add16.o'
p370
aS'__out__/LNX_TI_cgt2_70/rel_n5_camera_micron/csw-system/rtslib/v2_70/floor.o'
p371
aS'__out__/LNX_TI_cgt2_70/rel_n5_camera_micron/B_TIPS/btstack/profiles/pbap/pbap.o'
p372
aS'__out__/LNX_TI_cgt2_70/rel_n5_camera_micron/csw-system/os/nucleus/1_15/plus/src/dmc.o'
p373
aS'__out__/LNX_TI_cgt2_70/rel_n5_camera_micron/CS_ThirdParty/Beatnik/code/services/bae/Engine/Client_API/Private/mBAE_TempoCtrl.o'
p374
aS'__out__/LNX_TI_cgt2_70/rel_n5_camera_micron/csw-system/os/nucleus/1_15/plus/src/smf.o'
p375
aS'__out__/LNX_TI_cgt2_70/rel_n5_camera_micron/CS_ThirdParty/Beatnik/code/services/bae/Engine/Common/ACC_SunMPEGAudioDecoder.o'
p376
aS'__out__/LNX_TI_cgt2_70/rel_n5_camera_micron/csw-system/rtslib/v2_70/ll_lsr32.o'
p377
aS'__out__/LNX_TI_cgt2_70/rel_n5_camera_micron/B_TIPS/btstack/stack/sdp/sdputil.o'
p378
aS'__out__/LNX_TI_cgt2_70/rel_n5_camera_micron/csw-system/rtslib/v2_70/new_afn.o'
p379
aS'__out__/LNX_TI_cgt2_70/rel_n5_camera_micron/csw-system/rtslib/v2_70/fd_tos16.o'
p380
aS'__out__/LNX_TI_cgt2_70/rel_n5_camera_micron/CS_ThirdParty/Beatnik/code/services/bae/Engine/Common_FLASH/ACC_YamahaAudioDecoder.o'
p381
aS'__out__/LNX_TI_cgt2_70/rel_n5_camera_micron/CS_ThirdParty/Beatnik/code/services/bae/Engine/Common/ACC_JTSMidiEventFeed.o'
p382
aS'csw-system/rtslib/v2_70/stdexcept'
p383
aS'__out__/LNX_TI_cgt2_70/rel_n5_camera_micron/CS_ThirdParty/Beatnik/code/services/bae/Engine/Common_FLASH/ACC_SMFMidiEventFeed.o'
p384
aS'__out__/LNX_TI_cgt2_70/rel_n5_camera_micron/csw-system/rtslib/v2_70/ecvt.o'
p385
aS'__out__/LNX_TI_cgt2_70/rel_n5_camera_micron/csw-system/rtslib/v2_70/ll_lsl16.o'
p386
aS'__out__/LNX_TI_cgt2_70/rel_n5_camera_micron/csw-system/os/nucleus/1_15/plus/src/tcf.o'
p387
aS'__out__/LNX_TI_cgt2_70/rel_n5_camera_micron/CS_ThirdParty/Beatnik/code/services/bae/Engine/Common/AC_DLSEffect.o'
p388
aS'__out__/LNX_TI_cgt2_70/rel_n5_camera_micron/csw-system/rtslib/v2_70/fgets.o'
p389
aS'__out__/LNX_TI_cgt2_70/rel_n5_camera_micron/csw-system/os/nucleus/1_15/plus/src/pmce.o'
p390
aS'__out__/LNX_TI_cgt2_70/rel_n5_camera_micron/CS_ThirdParty/Beatnik/code/services/bae/Engine/Common/ACC_SMFResFileHandler.o'
p391
aS'__out__/LNX_TI_cgt2_70/rel_n5_camera_micron/CS_ThirdParty/Beatnik/code/services/bae/Engine/Common/ACC_IREZResFileHandler.o'
p392
aS'__out__/LNX_TI_cgt2_70/rel_n5_camera_micron/B_TIPS/btstack/profiles/spp/spp.o'
p393
aS'__out__/LNX_TI_cgt2_70/rel_n5_camera_micron/B_TIPS/btstack/stack/l2cap/l2cap_sm.o'
p394
aS'__out__/LNX_TI_cgt2_70/rel_n5_camera_micron/CS_ThirdParty/Beatnik/code/services/bae/Engine/Common/ACC_UTF32UnicodeDecoder.o'
p395
aS'__out__/LNX_TI_cgt2_70/rel_n5_camera_micron/B_TIPS/btstack/stack/rfcomm/rfc_util.o'
p396
aS'__out__/LNX_TI_cgt2_70/rel_n5_camera_micron/csw-system/os/nucleus/1_15/plus/src/mbf.o'
p397
aS'__out__/LNX_TI_cgt2_70/rel_n5_camera_micron/B_TIPS/btstack/profiles/hid/hid.o'
p398
aS'__out__/LNX_TI_cgt2_70/rel_n5_camera_micron/B_TIPS/btstack/profiles/avrcp/avrcpsdp.o'
p399
aS'__out__/LNX_TI_cgt2_70/rel_n5_camera_micron/csw-system/rtslib/v2_70/memcpy.o'
p400
aS'__out__/LNX_TI_cgt2_70/rel_n5_camera_micron/csw-system/rtslib/v2_70/fd_cmp16.o'
p401
aS'__out__/LNX_TI_cgt2_70/rel_n5_camera_micron/csw-system/rtslib/v2_70/new_sof.o'
p402
aS'__out__/LNX_TI_cgt2_70/rel_n5_camera_micron/CS_ThirdParty/Beatnik/code/services/bae/bae_playall.o'
p403
aS'__out__/LNX_TI_cgt2_70/rel_n5_camera_micron/CS_ThirdParty/Beatnik/code/services/bae/Engine/Common/AC_Cast128.o'
p404
aS'__out__/LNX_TI_cgt2_70/rel_n5_camera_micron/csw-system/os/nucleus/1_15/plus/src/mbce.o'
p405
aS'__out__/LNX_TI_cgt2_70/rel_n5_camera_micron/CS_ThirdParty/Beatnik/code/services/bae/Libraries/zlib_Source/inflate.o'
p406
aS'csw-system/rtslib/v2_70/exception'
p407
aS'__out__/LNX_TI_cgt2_70/rel_n5_camera_micron/B_TIPS/btstack/add-ins/obex/obex_utl.o'
p408
aS'__out__/LNX_TI_cgt2_70/rel_n5_camera_micron/csw-system/rtslib/v2_70/isspace.o'
p409
aS'__out__/LNX_TI_cgt2_70/rel_n5_camera_micron/CS_ThirdParty/Emuzed/imaging/SourceCode/Code/Src_FLASH/Decoder/jpegDecoder_flash.o'
p410
aS'__out__/LNX_TI_cgt2_70/rel_n5_camera_micron/csw-system/rtslib/v2_70/sinh.o'
p411
aS'__out__/LNX_TI_cgt2_70/rel_n5_camera_micron/csw-system/rtslib/v2_70/localtim.o'
p412
aS'__out__/LNX_TI_cgt2_70/rel_n5_camera_micron/CS_ThirdParty/Beatnik/code/services/bae/stub.o'
p413
aS'__out__/LNX_TI_cgt2_70/rel_n5_camera_micron/B_TIPS/btstack/profiles/hid/hid_sdp.o'
p414
aS'__out__/LNX_TI_cgt2_70/rel_n5_camera_micron/CS_ThirdParty/Beatnik/code/services/bae/Engine/Common/AC_Callback.o'
p415
aS'__out__/LNX_TI_cgt2_70/rel_n5_camera_micron/csw-system/os/nucleus/1_15/plus/src/evce.o'
p416
aS'__out__/LNX_TI_cgt2_70/rel_n5_camera_micron/csw-system/rtslib/v2_70/stkchk16.o'
p417
aS'__out__/LNX_TI_cgt2_70/rel_n5_camera_micron/HSW_FMStack/stack/fm_tiinit.o'
p418
aS'__out__/LNX_TI_cgt2_70/rel_n5_camera_micron/CS_ThirdParty/Beatnik/code/services/bae/Engine/Common/AC_DLSSoundVoice.o'
p419
aS'__out__/LNX_TI_cgt2_70/rel_n5_camera_micron/CS_ThirdParty/Emuzed/imaging/SourceCode/Code/Src_FLASH/Decoder/memory_jpegdec_flash.o'
p420
aS'__out__/LNX_TI_cgt2_70/rel_n5_camera_micron/csw-system/rtslib/v2_70/ull_tofs16.o'
p421
aS'__out__/LNX_TI_cgt2_70/rel_n5_camera_micron/B_TIPS/btstack/stack/sdp/sdpclient.o'
p422
aS'__out__/LNX_TI_cgt2_70/rel_n5_camera_micron/CS_ThirdParty/Beatnik/code/services/bae/Engine/Common_FLASH/AC_ChannelState.o'
p423
aS'__out__/LNX_TI_cgt2_70/rel_n5_camera_micron/CS_ThirdParty/Beatnik/code/services/bae/Engine/Common/AC_FileProxy.o'
p424
aS'__out__/LNX_TI_cgt2_70/rel_n5_camera_micron/B_TIPS/btstack/profiles/a2dp/a2dp.o'
p425
aS'__out__/LNX_TI_cgt2_70/rel_n5_camera_micron/csw-system/rtslib/v2_70/fclose.o'
p426
aS'__out__/LNX_TI_cgt2_70/rel_n5_camera_micron/csw-system/rtslib/v2_70/icall16.o'
p427
aS'__out__/LNX_TI_cgt2_70/rel_n5_camera_micron/B_TIPS/btstack/stack/hci/hci.o'
p428
aS'__out__/LNX_TI_cgt2_70/rel_n5_camera_micron/CS_ThirdParty/Beatnik/code/services/bae/Engine/Common/ACTrace.o'
p429
aS'__out__/LNX_TI_cgt2_70/rel_n5_camera_micron/csw-system/os/nucleus/1_15/plus/src/eri.o'
p430
aS'__out__/LNX_TI_cgt2_70/rel_n5_camera_micron/B_TIPS/btstack/stack/me/medev.o'
p431
aS'__out__/LNX_TI_cgt2_70/rel_n5_camera_micron/CS_ThirdParty/Beatnik/code/services/bae/Engine/Common/AC_TrackMap.o'
p432
aS'__out__/LNX_TI_cgt2_70/rel_n5_camera_micron/csw-system/rtslib/v2_70/tmzone.o'
p433
aS'__out__/LNX_TI_cgt2_70/rel_n5_camera_micron/csw-system/rtslib/v2_70/frexp.o'
p434
aS'__out__/LNX_TI_cgt2_70/rel_n5_camera_micron/CS_ThirdParty/Beatnik/code/services/bae/Engine/Client_API/Private/mBAE_AudioFilePlayer.o'
p435
aS'gpf/LIB/misc_na7_db_ir_ts3.lib'
p436
aS'__out__/LNX_TI_cgt2_70/rel_n5_camera_micron/csw-system/rtslib/v2_70/strtol.o'
p437
aS'__out__/LNX_TI_cgt2_70/rel_n5_camera_micron/csw-system/rtslib/v2_70/_scanfi.o'
p438
aS'__out__/LNX_TI_cgt2_70/rel_n5_camera_micron/CS_ThirdParty/Beatnik/code/services/bae/Engine/Common/ACC_XMFResFileHandler.o'
p439
aS'__out__/LNX_TI_cgt2_70/rel_n5_camera_micron/csw-system/rtslib/v2_70/gmtime.o'
p440
aS'__out__/LNX_TI_cgt2_70/rel_n5_camera_micron/CS_ThirdParty/Beatnik/code/services/bae/PAL_Impls/Riviera/PAL_Rivera.o'
p441
aS'__out__/LNX_TI_cgt2_70/rel_n5_camera_micron/g23m/g23m.a'
p442
aS'__out__/LNX_TI_cgt2_70/rel_n5_camera_micron/CS_ThirdParty/Beatnik/code/services/bae/Engine/Client_API/Private/mBAE_PlayerCtrl.o'
p443
aS'__out__/LNX_TI_cgt2_70/rel_n5_camera_micron/CS_ThirdParty/Beatnik/code/services/bae/Engine/Common/AC_DLSReader.o'
p444
aS'__out__/LNX_TI_cgt2_70/rel_n5_camera_micron/csw-system/rtslib/v2_70/memset32.o'
p445
aS'__out__/LNX_TI_cgt2_70/rel_n5_camera_micron/csw-system/rtslib/v2_70/strtod.o'
p446
aS'__out__/LNX_TI_cgt2_70/rel_n5_camera_micron/csw-system/rtslib/v2_70/log.o'
p447
aS'gpf/LIB/osx_na7_db.lib'
p448
aS'__out__/LNX_TI_cgt2_70/rel_n5_camera_micron/CS_ThirdParty/Beatnik/code/services/bae/Libraries/zlib_Source/inftrees.o'
p449
aS'__out__/LNX_TI_cgt2_70/rel_n5_camera_micron/csw-system/rtslib/v2_70/fd_toull16.o'
p450
aS'__out__/LNX_TI_cgt2_70/rel_n5_camera_micron/CS_ThirdParty/Beatnik/code/services/bae/Engine/Common_FLASH/AC_Sequencer.o'
p451
aS'__out__/LNX_TI_cgt2_70/rel_n5_camera_micron/csw-system/rtslib/v2_70/rts16le_int_ram.a'
p452
aS'__out__/LNX_TI_cgt2_70/rel_n5_camera_micron/csw-system/rtslib/v2_70/setjmp32.o'
p453
aS'__out__/LNX_TI_cgt2_70/rel_n5_camera_micron/csw-system/os/nucleus/1_15/plus/src/quf.o'
p454
aS'__out__/LNX_TI_cgt2_70/rel_n5_camera_micron/csw-system/rtslib/v2_70/ldexp.o'
p455
aS'__out__/LNX_TI_cgt2_70/rel_n5_camera_micron/si/str2ind.o'
p456
aS'__out__/LNX_TI_cgt2_70/rel_n5_camera_micron/csw-system/os/nucleus/1_15/plus/src/qud.o'
p457
aS'CS_ThirdParty/Datalight/libs/flashfx_nor_nand.lib'
p458
aS'__out__/LNX_TI_cgt2_70/rel_n5_camera_micron/csw-system/os/nucleus/1_15/plus/src/pmd.o'
p459
aS'__out__/LNX_TI_cgt2_70/rel_n5_camera_micron/CS_ThirdParty/Beatnik/code/services/bae/bae_handle_message.o'
p460
aS'__out__/LNX_TI_cgt2_70/rel_n5_camera_micron/csw-system/rtslib/v2_70/tolower.o'
p461
aS'__out__/LNX_TI_cgt2_70/rel_n5_camera_micron/csw-system/rtslib/v2_70/ll_mul16.o'
p462
aS'__out__/LNX_TI_cgt2_70/rel_n5_camera_micron/csw-system/rtslib/v2_70/tmpfile.o'
p463
aS'__out__/LNX_TI_cgt2_70/rel_n5_camera_micron/csw-system/os/nucleus/1_15/plus/src/tmi.o'
p464
aS'__out__/LNX_TI_cgt2_70/rel_n5_camera_micron/csw-system/rtslib/v2_70/isprint.o'
p465
aS'__out__/LNX_TI_cgt2_70/rel_n5_camera_micron/csw-system/rtslib/v2_70/isascii.o'
p466
aS'__out__/LNX_TI_cgt2_70/rel_n5_camera_micron/B_TIPS/btstack/profiles/bip/biputil.o'
p467
aS'__out__/LNX_TI_cgt2_70/rel_n5_camera_micron/csw-system/os/nucleus/1_15/plus/src/tms.o'
p468
aS'__out__/LNX_TI_cgt2_70/rel_n5_camera_micron/csw-system/rtslib/v2_70/memcpy32.o'
p469
aS'__out__/LNX_TI_cgt2_70/rel_n5_camera_micron/csw-system/rtslib/v2_70/log10.o'
p470
aS'__out__/LNX_TI_cgt2_70/rel_n5_camera_micron/CS_ThirdParty/Emuzed/imaging/SourceCode/Code/Src_FLASH/Decoder/baseline_flash.o'
p471
aS'__out__/LNX_TI_cgt2_70/rel_n5_camera_micron/csw-system/os/nucleus/1_15/plus/src/nucleus_int_ram.a'
p472
aS'__out__/LNX_TI_cgt2_70/rel_n5_camera_micron/csw-system/rtslib/v2_70/u_tofd16.o'
p473
aS'__out__/LNX_TI_cgt2_70/rel_n5_camera_micron/CS_ThirdParty/Beatnik/code/services/bae/Engine/Common/AC_BufferedFileStream.o'
p474
aS'__out__/LNX_TI_cgt2_70/rel_n5_camera_micron/csw-system/os/nucleus/1_15/plus/src/pmf.o'
p475
aS'__out__/LNX_TI_cgt2_70/rel_n5_camera_micron/csw-system/os/nucleus/1_15/plus/src/tcc.o'
p476
aS'__out__/LNX_TI_cgt2_70/rel_n5_camera_micron/CS_ThirdParty/Beatnik/code/services/bae/Engine/Common/AC_FileStream.o'
p477
aS'__out__/LNX_TI_cgt2_70/rel_n5_camera_micron/B_TIPS/btstack/profiles/bpp/bpputil.o'
p478
aS'gpf/LIB/tif_na7_db_fl_ts3.lib'
p479
aS'__out__/LNX_TI_cgt2_70/rel_n5_camera_micron/B_TIPS/btstack/profiles/hf/hfg_sdp.o'
p480
aS'__out__/LNX_TI_cgt2_70/rel_n5_camera_micron/CS_ThirdParty/Beatnik/code/services/bae/Engine/Common/ACC_ZlibDecompressor.o'
p481
aS'__out__/LNX_TI_cgt2_70/rel_n5_camera_micron/B_TIPS/btstack/profiles/sim/sim_sm.o'
p482
aS'__out__/LNX_TI_cgt2_70/rel_n5_camera_micron/B_TIPS/btstack/stack/hci/prescan.o'
p483
aS'__out__/LNX_TI_cgt2_70/rel_n5_camera_micron/CS_ThirdParty/Beatnik/code/services/bae/Engine/Common/AC_SampleMemoryStreamed.o'
p484
aS'__out__/LNX_TI_cgt2_70/rel_n5_camera_micron/B_TIPS/btstack/profiles/bpp/bpp.o'
p485
aS'__out__/LNX_TI_cgt2_70/rel_n5_camera_micron/csw-system/rtslib/v2_70/setjmp16.o'
p486
aS'__out__/LNX_TI_cgt2_70/rel_n5_camera_micron/CS_ThirdParty/Beatnik/code/services/bae/Engine/Common/ACC_IgorReverb.o'
p487
aS'__out__/LNX_TI_cgt2_70/rel_n5_camera_micron/csw-system/rtslib/v2_70/strtold.o'
p488
aS'__out__/LNX_TI_cgt2_70/rel_n5_camera_micron/B_TIPS/btstack/stack/btrom.o'
p489
aS'__out__/LNX_TI_cgt2_70/rel_n5_camera_micron/csw-system/rtslib/v2_70/memmov.o'
p490
aS'__out__/LNX_TI_cgt2_70/rel_n5_camera_micron/CS_ThirdParty/Beatnik/code/services/bae/Engine/Common/ACC_IMYMidiEventFeed.o'
p491
aS'__out__/LNX_TI_cgt2_70/rel_n5_camera_micron/CS_ThirdParty/Beatnik/code/services/bae/Engine/Common/ACC_ResFileHandler.o'
p492
aS'__out__/LNX_TI_cgt2_70/rel_n5_camera_micron/B_TIPS/btstack/stack/l2cap/l2cap_if.o'
p493
aS'__out__/LNX_TI_cgt2_70/rel_n5_camera_micron/csw-system/rtslib/v2_70/difftime.o'
p494
aS'__out__/LNX_TI_cgt2_70/rel_n5_camera_micron/csw-system/os/nucleus/1_15/plus/src/qui.o'
p495
aS'__out__/LNX_TI_cgt2_70/rel_n5_camera_micron/csw-system/rtslib/v2_70/clearerr.o'
p496
aS'__out__/LNX_TI_cgt2_70/rel_n5_camera_micron/csw-system/rtslib/v2_70/fs_toi32.o'
p497
aS'__out__/LNX_TI_cgt2_70/rel_n5_camera_micron/csw-system/rtslib/v2_70/memcmp.o'
p498
aS'__out__/LNX_TI_cgt2_70/rel_n5_camera_micron/B_TIPS/btstack/add-ins/obex/obheader.o'
p499
aS'__out__/LNX_TI_cgt2_70/rel_n5_camera_micron/csw-system/rtslib/v2_70/ftell.o'
p500
aS'__out__/LNX_TI_cgt2_70/rel_n5_camera_micron/CS_ThirdParty/Emuzed/imaging/SourceCode/Code/Src_FLASH/Decoder/frame_decode_ram.o'
p501
aS'__out__/LNX_TI_cgt2_70/rel_n5_camera_micron/HSW_FMStack/stack/fms.o'
p502
aS'__out__/LNX_TI_cgt2_70/rel_n5_camera_micron/csw-system/os/nucleus/1_15/plus/src/tcfe.o'
p503
aS'__out__/LNX_TI_cgt2_70/rel_n5_camera_micron/CS_ThirdParty/Beatnik/code/services/bae/Engine/Common/AC_IFFReader.o'
p504
aS'__out__/LNX_TI_cgt2_70/rel_n5_camera_micron/csw-system/rtslib/v2_70/_printfi.o'
p505
aS'__out__/LNX_TI_cgt2_70/rel_n5_camera_micron/csw-system/rtslib/v2_70/lowlev.o'
p506
aS'__out__/LNX_TI_cgt2_70/rel_n5_camera_micron/csw-system/rtslib/v2_70/atoi.o'
p507
aS'__out__/LNX_TI_cgt2_70/rel_n5_camera_micron/csw-system/rtslib/v2_70/ctype.o'
p508
aS'__out__/LNX_TI_cgt2_70/rel_n5_camera_micron/B_TIPS/btstack/add-ins/at/at_pb.o'
p509
aS'__out__/LNX_TI_cgt2_70/rel_n5_camera_micron/CS_ThirdParty/Beatnik/code/services/bae/Engine/Common/ACC_JTSResFileHandler.o'
p510
aS'__out__/LNX_TI_cgt2_70/rel_n5_camera_micron/CS_ThirdParty/Beatnik/code/services/bae/Engine/Common/AC_DLSUtils.o'
p511
aS'__out__/LNX_TI_cgt2_70/rel_n5_camera_micron/csw-system/rtslib/v2_70/fs_tou16.o'
p512
aS'__out__/LNX_TI_cgt2_70/rel_n5_camera_micron/csw-system/rtslib/v2_70/rewind.o'
p513
aS'__out__/LNX_TI_cgt2_70/rel_n5_camera_micron/csw-system/rtslib/v2_70/fabs.o'
p514
aS'__out__/LNX_TI_cgt2_70/rel_n5_camera_micron/csw-system/rtslib/v2_70/fs_mul16.o'
p515
aS'__out__/LNX_TI_cgt2_70/rel_n5_camera_micron/B_TIPS/btstack/profiles/avctp/avctp.o'
p516
aS'__out__/LNX_TI_cgt2_70/rel_n5_camera_micron/CS_ThirdParty/Beatnik/code/services/bae/Engine/Common/AC_ComponentMgr.o'
p517
aS'__out__/LNX_TI_cgt2_70/rel_n5_camera_micron/csw-system/rtslib/v2_70/u_tofd32.o'
p518
aS'__out__/LNX_TI_cgt2_70/rel_n5_camera_micron/CS_ThirdParty/Emuzed/imaging/SourceCode/Code/Src_FLASH/Decoder/Progressive_Code_flash.o'
p519
aS'__out__/LNX_TI_cgt2_70/rel_n5_camera_micron/B_TIPS/btstack/profiles/bpp/bppobs.o'
p520
aS'__out__/LNX_TI_cgt2_70/rel_n5_camera_micron/csw-system/rtslib/v2_70/del_sofp.o'
p521
aS'__out__/LNX_TI_cgt2_70/rel_n5_camera_micron/csw-system/rtslib/v2_70/vfprintf.o'
p522
aS'__out__/LNX_TI_cgt2_70/rel_n5_camera_micron/B_TIPS/btstack/hcitrans/chip_pm.o'
p523
aS'__out__/LNX_TI_cgt2_70/rel_n5_camera_micron/B_TIPS/btstack/profiles/avdtp/avdtp.o'
p524
aS'__out__/LNX_TI_cgt2_70/rel_n5_camera_micron/csw-system/rtslib/v2_70/new_.o'
p525
aS'__out__/LNX_TI_cgt2_70/rel_n5_camera_micron/B_TIPS/btstack/profiles/avdtp/avsigmgr.o'
p526
aS'__out__/LNX_TI_cgt2_70/rel_n5_camera_micron/csw-system/rtslib/v2_70/setvbuf.o'
p527
aS'__out__/LNX_TI_cgt2_70/rel_n5_camera_micron/csw-system/os/nucleus/1_15/plus/src/smi.o'
p528
aS'__out__/LNX_TI_cgt2_70/rel_n5_camera_micron/CS_ThirdParty/Beatnik/code/services/bae/Engine/Common/ACC_IMYResFileHandler.o'
p529
aS'__out__/LNX_TI_cgt2_70/rel_n5_camera_micron/csw-system/rtslib/v2_70/pow.o'
p530
aS'__out__/LNX_TI_cgt2_70/rel_n5_camera_micron/CS_ThirdParty/Beatnik/code/services/bae/Engine/Common/AC_MetadataTOC.o'
p531
aS'__out__/LNX_TI_cgt2_70/rel_n5_camera_micron/csw-system/os/nucleus/1_15/plus/src/ioce.o'
p532
aS'__out__/LNX_TI_cgt2_70/rel_n5_camera_micron/csw-system/rtslib/v2_70/trgmsg.o'
p533
aS'__out__/LNX_TI_cgt2_70/rel_n5_camera_micron/B_TIPS/btstack/profiles/avdtp/avalloc.o'
p534
aS'__out__/LNX_TI_cgt2_70/rel_n5_camera_micron/CS_ThirdParty/Beatnik/code/services/bae/Engine/Common/ACC_RTXResFileHandler.o'
p535
aS'__out__/LNX_TI_cgt2_70/rel_n5_camera_micron/csw-system/rtslib/v2_70/div.o'
p536
aS'__out__/LNX_TI_cgt2_70/rel_n5_camera_micron/CS_ThirdParty/Beatnik/code/services/bae/Engine/Common/AC_ResourceAccess.o'
p537
aS'__out__/LNX_TI_cgt2_70/rel_n5_camera_micron/B_TIPS/btstack/stack/eventmgr.o'
p538
aS'__out__/LNX_TI_cgt2_70/rel_n5_camera_micron/csw-system/rtslib/v2_70/exit.o'
p539
aS'__out__/LNX_TI_cgt2_70/rel_n5_camera_micron/csw-system/os/nucleus/1_15/plus/src/ioc.o'
p540
aS'__out__/LNX_TI_cgt2_70/rel_n5_camera_micron/csw-system/rtslib/v2_70/strrchr.o'
p541
aS'__out__/LNX_TI_cgt2_70/rel_n5_camera_micron/B_TIPS/btstack/profiles/bip/bip_sm.o'
p542
aS'__out__/LNX_TI_cgt2_70/rel_n5_camera_micron/CS_ThirdParty/Beatnik/code/services/bae/Engine/Common_SRAM/AC_DLSRenderer.o'
p543
aS'__out__/LNX_TI_cgt2_70/rel_n5_camera_micron/csw-system/rtslib/v2_70/tanh.o'
p544
aS'__out__/LNX_TI_cgt2_70/rel_n5_camera_micron/csw-system/os/nucleus/1_15/plus/src/dmd.o'
p545
aS'__out__/LNX_TI_cgt2_70/rel_n5_camera_micron/CS_ThirdParty/Emuzed/imaging/SourceCode/Code/Src_FLASH/ImageProcessing/rotation_SingleBuff.o'
p546
aS'__out__/LNX_TI_cgt2_70/rel_n5_camera_micron/csw-system/rtslib/v2_70/fputs.o'
p547
aS'__out__/LNX_TI_cgt2_70/rel_n5_camera_micron/B_TIPS/btstack/profiles/hs/hsg_sdp.o'
p548
aS'__out__/LNX_TI_cgt2_70/rel_n5_camera_micron/CS_ThirdParty/Beatnik/code/services/bae/Engine/Common/AC_XMFReader.o'
p549
aS'__out__/LNX_TI_cgt2_70/rel_n5_camera_micron/csw-system/rtslib/v2_70/isxdigit.o'
p550
aS'__out__/LNX_TI_cgt2_70/rel_n5_camera_micron/CS_ThirdParty/Emuzed/imaging/SourceCode/Code/Asm_FLASH/stub.o'
p551
aS'__out__/LNX_TI_cgt2_70/rel_n5_camera_micron/CS_ThirdParty/Beatnik/code/services/bae/Engine/Common/AC_Resource.o'
p552
aS'__out__/LNX_TI_cgt2_70/rel_n5_camera_micron/CS_ThirdParty/Beatnik/code/services/bae/Engine/Common/AC_BitStream.o'
p553
aS'__out__/LNX_TI_cgt2_70/rel_n5_camera_micron/CS_ThirdParty/Emuzed/imaging/SourceCode/Code/Src_FLASH/ImageProcessing/color_effects_flash.o'
p554
aS'__out__/LNX_TI_cgt2_70/rel_n5_camera_micron/CS_ThirdParty/Beatnik/code/services/bae/Engine/Client_API/Private/mBAE_DRCCtrl.o'
p555
aS'__out__/LNX_TI_cgt2_70/rel_n5_camera_micron/CS_ThirdParty/Beatnik/code/services/bae/Engine/Common/ACC_IREZToDLSParser.o'
p556
aS'__out__/LNX_TI_cgt2_70/rel_n5_camera_micron/csw-system/rtslib/v2_70/fs_tod16.o'
p557
aS'__out__/LNX_TI_cgt2_70/rel_n5_camera_micron/csw-system/rtslib/v2_70/del_sofn.o'
p558
aS'__out__/LNX_TI_cgt2_70/rel_n5_camera_micron/csw-system/rtslib/v2_70/fd_toi32.o'
p559
aS'__out__/LNX_TI_cgt2_70/rel_n5_camera_micron/csw-system/os/nucleus/1_15/plus/src/mbs.o'
p560
aS'__out__/LNX_TI_cgt2_70/rel_n5_camera_micron/B_TIPS/btstack/add-ins/obex/obxalloc.o'
p561
aS'__out__/LNX_TI_cgt2_70/rel_n5_camera_micron/csw-system/rtslib/v2_70/strncmp.o'
p562
aS'__out__/LNX_TI_cgt2_70/rel_n5_camera_micron/B_TIPS/btstack/stack/me/mecon.o'
p563
aS'__out__/LNX_TI_cgt2_70/rel_n5_camera_micron/csw-system/rtslib/v2_70/ferror.o'
p564
aS'__out__/LNX_TI_cgt2_70/rel_n5_camera_micron/csw-system/rtslib/v2_70/fd_toull32.o'
p565
aS'__out__/LNX_TI_cgt2_70/rel_n5_camera_micron/csw-system/rtslib/v2_70/fseek.o'
p566
aS'__out__/LNX_TI_cgt2_70/rel_n5_camera_micron/csw-system/rtslib/v2_70/ll_div16.o'
p567
aS'__out__/LNX_TI_cgt2_70/rel_n5_camera_micron/csw-system/rtslib/v2_70/stkdepth.o'
p568
aS'__out__/LNX_TI_cgt2_70/rel_n5_camera_micron/csw-system/rtslib/v2_70/fmod.o'
p569
aS'__out__/LNX_TI_cgt2_70/rel_n5_camera_micron/B_TIPS/btstack/profiles/avrcp/avrcp.o'
p570
aS'__out__/LNX_TI_cgt2_70/rel_n5_camera_micron/B_TIPS/btstack/profiles/hid/hid_sm.o'
p571
aS'__out__/LNX_TI_cgt2_70/rel_n5_camera_micron/csw-system/rtslib/v2_70/fcvt.o'
p572
aS'__out__/LNX_TI_cgt2_70/rel_n5_camera_micron/CS_ThirdParty/Emuzed/imaging/SourceCode/Code/Src_FLASH/Decoder/vld_ram.o'
p573
aS'__out__/LNX_TI_cgt2_70/rel_n5_camera_micron/csw-system/os/nucleus/1_15/plus/src/mbi.o'
p574
aS'__out__/LNX_TI_cgt2_70/rel_n5_camera_micron/csw-system/rtslib/v2_70/snprintf.o'
p575
aS'__out__/LNX_TI_cgt2_70/rel_n5_camera_micron/CS_ThirdParty/Beatnik/code/services/bae/Engine/Common/ACC_CastDecryptor.o'
p576
aS'__out__/LNX_TI_cgt2_70/rel_n5_camera_micron/CS_ThirdParty/Beatnik/code/services/bae/Engine/Common_FLASH/AC_Math.o'
p577
aS'__out__/LNX_TI_cgt2_70/rel_n5_camera_micron/csw-system/rtslib/v2_70/tan.o'
p578
aS'__out__/LNX_TI_cgt2_70/rel_n5_camera_micron/B_TIPS/btstack/profiles/opush/opush.o'
p579
aS'__out__/LNX_TI_cgt2_70/rel_n5_camera_micron/csw-system/os/nucleus/1_15/plus/src/nucleus_flash.a'
p580
aS'csw-system/rtslib/v2_70/cstring'
p581
aS'__out__/LNX_TI_cgt2_70/rel_n5_camera_micron/csw-system/os/nucleus/1_15/plus/src/sms.o'
p582
aS'__out__/LNX_TI_cgt2_70/rel_n5_camera_micron/csw-system/rtslib/v2_70/strtoull.o'
p583
aS'__out__/LNX_TI_cgt2_70/rel_n5_camera_micron/CS_ThirdParty/Beatnik/code/services/bae/bae_set_audio_path.o'
p584
aS'__out__/LNX_TI_cgt2_70/rel_n5_camera_micron/csw-system/rtslib/v2_70/ltoa.o'
p585
aS'__out__/LNX_TI_cgt2_70/rel_n5_camera_micron/csw-system/rtslib/v2_70/ll_div32.o'
p586
aS'__out__/LNX_TI_cgt2_70/rel_n5_camera_micron/CS_ThirdParty/Beatnik/code/services/bae/Engine/Client_API/Private/mBAE_LoadCtrl.o'
p587
aS'__out__/LNX_TI_cgt2_70/rel_n5_camera_micron/csw-system/rtslib/v2_70/i_tofs16.o'
p588
aS'__out__/LNX_TI_cgt2_70/rel_n5_camera_micron/csw-system/rtslib/v2_70/sprintf.o'
p589
aS'__out__/LNX_TI_cgt2_70/rel_n5_camera_micron/csw-system/rtslib/v2_70/strcmp.o'
p590
aS'__out__/LNX_TI_cgt2_70/rel_n5_camera_micron/csw-system/os/nucleus/1_15/plus/src/pii.o'
p591
aS'__out__/LNX_TI_cgt2_70/rel_n5_camera_micron/CS_ThirdParty/Beatnik/code/services/bae/Engine/Common/AC_ClientStream.o'
p592
aS'__out__/LNX_TI_cgt2_70/rel_n5_camera_micron/csw-system/rtslib/v2_70/new_sofn.o'
p593
aS'__out__/LNX_TI_cgt2_70/rel_n5_camera_micron/csw-system/rtslib/v2_70/del_afn.o'
p594
aS'__out__/LNX_TI_cgt2_70/rel_n5_camera_micron/csw-system/os/nucleus/1_15/plus/src/erc.o'
p595
aS'__out__/LNX_TI_cgt2_70/rel_n5_camera_micron/CS_ThirdParty/Beatnik/code/services/bae/Engine/Common_FLASH/AC_Synth.o'
p596
aS'__out__/LNX_TI_cgt2_70/rel_n5_camera_micron/csw-system/os/nucleus/1_15/plus/src/pic.o'
p597
aS'__out__/LNX_TI_cgt2_70/rel_n5_camera_micron/B_TIPS/btstack/stack/hci/hci_evnt.o'
p598
aS'__out__/LNX_TI_cgt2_70/rel_n5_camera_micron/B_TIPS/btstack/add-ins/at/at_hs.o'
p599
aS'__out__/LNX_TI_cgt2_70/rel_n5_camera_micron/CS_ThirdParty/Beatnik/code/services/bae/Engine/Common/ACC_SMSResFileHandler.o'
p600
aS'__out__/LNX_TI_cgt2_70/rel_n5_camera_micron/CS_ThirdParty/Beatnik/code/services/bae/Engine/Client_API/Private/mBAE_RingtoneFilePlayer.o'
p601
aS'__out__/LNX_TI_cgt2_70/rel_n5_camera_micron/csw-system/os/nucleus/1_15/plus/src/mbse.o'
p602
aS'__out__/LNX_TI_cgt2_70/rel_n5_camera_micron/csw-system/rtslib/v2_70/fgetpos.o'
p603
aS'__out__/LNX_TI_cgt2_70/rel_n5_camera_micron/CS_ThirdParty/Beatnik/code/services/bae/Engine/Client_API/Private/mBAE_GroupPlayer.o'
p604
aS'__out__/LNX_TI_cgt2_70/rel_n5_camera_micron/CS_ThirdParty/Beatnik/code/services/bae/Libraries/G711_Source/g711.o'
p605
aS'__out__/LNX_TI_cgt2_70/rel_n5_camera_micron/csw-system/rtslib/v2_70/fopen.o'
p606
aS'__out__/LNX_TI_cgt2_70/rel_n5_camera_micron/CS_ThirdParty/Beatnik/code/services/bae/Engine/Common/ACC_CompressedUnicodeDecoder.o'
p607
aS'__out__/LNX_TI_cgt2_70/rel_n5_camera_micron/csw-system/os/nucleus/1_15/plus/src/pmc.o'
p608
aS'__out__/LNX_TI_cgt2_70/rel_n5_camera_micron/B_TIPS/btstack/profiles/bpp/bpp_sm.o'
p609
aS'__out__/LNX_TI_cgt2_70/rel_n5_camera_micron/csw-system/os/nucleus/1_15/plus/src/erd.o'
p610
aS'gpf/LIB/frame_na7_db_fl_ts3.lib'
p611
aS'__out__/LNX_TI_cgt2_70/rel_n5_camera_micron/CS_ThirdParty/Beatnik/code/services/bae/Engine/Client_API/Private/mBAE_MidiSynth.o'
p612
aS'L1/layer1/drp/Release/138.10/bin_MultibandEn_FOTADis/drp_fw.out'
p613
aS'__out__/LNX_TI_cgt2_70/rel_n5_camera_micron/B_TIPS/btstack/add-ins/obex/observer.o'
p614
aS'__out__/LNX_TI_cgt2_70/rel_n5_camera_micron/B_TIPS/btstack/stack/btutils.o'
p615
aS'__out__/LNX_TI_cgt2_70/rel_n5_camera_micron/CS_ThirdParty/Beatnik/code/services/bae/Engine/Common/ACString.o'
p616
aS'__out__/LNX_TI_cgt2_70/rel_n5_camera_micron/CS_ThirdParty/Beatnik/code/services/bae/Engine/Common/ACC_RMFMidiEventFeed.o'
p617
aS'__out__/LNX_TI_cgt2_70/rel_n5_camera_micron/HSW_FMStack/stack/fm_utils.o'
p618
aS'__out__/LNX_TI_cgt2_70/rel_n5_camera_micron/csw-system/rtslib/v2_70/strtok.o'
p619
aS'__out__/LNX_TI_cgt2_70/rel_n5_camera_micron/csw-system/os/nucleus/1_15/plus/src/quc.o'
p620
aS'__out__/LNX_TI_cgt2_70/rel_n5_camera_micron/csw-system/rtslib/v2_70/isalnum.o'
p621
aS'__out__/LNX_TI_cgt2_70/rel_n5_camera_micron/csw-system/rtslib/v2_70/_log.o'
p622
aS'__out__/LNX_TI_cgt2_70/rel_n5_camera_micron/CS_ThirdParty/Beatnik/code/services/bae/Engine/Common/AC_MidiEventQueue.o'
p623
aS'__out__/LNX_TI_cgt2_70/rel_n5_camera_micron/csw-system/rtslib/v2_70/fd_div32.o'
p624
aS'__out__/LNX_TI_cgt2_70/rel_n5_camera_micron/CS_ThirdParty/Beatnik/code/services/bae/Engine/Common/AC_SampleStreamed.o'
p625
aS'__out__/LNX_TI_cgt2_70/rel_n5_camera_micron/CS_ThirdParty/Beatnik/code/services/bae/Engine/Common/ACC_AIFFResFileHandler.o'
p626
aS'__out__/LNX_TI_cgt2_70/rel_n5_camera_micron/csw-system/rtslib/v2_70/atof.o'
p627
aS'__out__/LNX_TI_cgt2_70/rel_n5_camera_micron/csw-system/rtslib/v2_70/strncat.o'
p628
aS'__out__/LNX_TI_cgt2_70/rel_n5_camera_micron/CS_ThirdParty/Beatnik/code/services/bae/Engine/Client_API/Private/mBAE_MidiPlayerCtrl.o'
p629
aS'__out__/LNX_TI_cgt2_70/rel_n5_camera_micron/CS_ThirdParty/Beatnik/code/services/bae/Engine/Common_FLASH/AC_DLSVoice.o'
p630
aS'__out__/LNX_TI_cgt2_70/rel_n5_camera_micron/CS_ThirdParty/Beatnik/code/services/bae/Engine/Common/ACC_DLSParser.o'
p631
aS'__out__/LNX_TI_cgt2_70/rel_n5_camera_micron/csw-system/rtslib/v2_70/rts16le_flash.a'
p632
aS'__out__/LNX_TI_cgt2_70/rel_n5_camera_micron/B_TIPS/btstack/profiles/hf/hfg_util.o'
p633
aS'__out__/LNX_TI_cgt2_70/rel_n5_camera_micron/CS_ThirdParty/Beatnik/code/services/bae/Engine/Client_API/Private/mBAE_AudioStreamPlayer.o'
p634
aS'__out__/LNX_TI_cgt2_70/rel_n5_camera_micron/B_TIPS/btstack/stack/me/meif.o'
p635
aS'__out__/LNX_TI_cgt2_70/rel_n5_camera_micron/B_TIPS/btstack/profiles/avctp/avctpmsg.o'
p636
aS'__out__/LNX_TI_cgt2_70/rel_n5_camera_micron/csw-system/os/nucleus/1_15/plus/src/hic.o'
p637
aS'__out__/LNX_TI_cgt2_70/rel_n5_camera_micron/B_TIPS/btstack/profiles/hid/hid_ctrl.o'
p638
aS'__out__/LNX_TI_cgt2_70/rel_n5_camera_micron/CS_ThirdParty/Beatnik/code/services/bae/Engine/Common/AC_InputHardware.o'
p639
aS'__out__/LNX_TI_cgt2_70/rel_n5_camera_micron/csw-system/rtslib/v2_70/sin.o'
p640
aS'__out__/LNX_TI_cgt2_70/rel_n5_camera_micron/CS_ThirdParty/Beatnik/code/services/bae/Engine/Common/ACNew.o'
p641
aS'__out__/LNX_TI_cgt2_70/rel_n5_camera_micron/csw-system/rtslib/v2_70/ll_lsl32.o'
p642
aS'__out__/LNX_TI_cgt2_70/rel_n5_camera_micron/CS_ThirdParty/Beatnik/code/services/bae/Engine/Common_SRAM/AC_DLSVoiceLoops.o'
p643
aS'__out__/LNX_TI_cgt2_70/rel_n5_camera_micron/B_TIPS/btstack/profiles/bip/bipobs.o'
p644
aS'__out__/LNX_TI_cgt2_70/rel_n5_camera_micron/csw-system/rtslib/v2_70/u_div32.o'
p645
aS'__out__/LNX_TI_cgt2_70/rel_n5_camera_micron/csw-system/os/nucleus/1_15/plus/src/tcd.o'
p646
aS'__out__/LNX_TI_cgt2_70/rel_n5_camera_micron/csw-system/rtslib/v2_70/atan2.o'
p647
aS'__out__/LNX_TI_cgt2_70/rel_n5_camera_micron/B_TIPS/btstack/stack/me/mesec.o'
p648
aS'__out__/LNX_TI_cgt2_70/rel_n5_camera_micron/csw-system/rtslib/v2_70/fscanf.o'
p649
aS'__out__/LNX_TI_cgt2_70/rel_n5_camera_micron/B_TIPS/btstack/profiles/bip/bip.o'
p650
aS'__out__/LNX_TI_cgt2_70/rel_n5_camera_micron/HSW_FMStack/stack/fms_api.o'
p651
aS'__out__/LNX_TI_cgt2_70/rel_n5_camera_micron/csw-system/rtslib/v2_70/fprintf.o'
p652
aS'__out__/LNX_TI_cgt2_70/rel_n5_camera_micron/csw-system/os/nucleus/1_15/plus/src/tmse.o'
p653
aS'__out__/LNX_TI_cgt2_70/rel_n5_camera_micron/B_TIPS/btstack/stack/l2cap/l2cap_utl.o'
p654
aS'__out__/LNX_TI_cgt2_70/rel_n5_camera_micron/csw-system/rtslib/v2_70/u_tofs32.o'
p655
aS'__out__/LNX_TI_cgt2_70/rel_n5_camera_micron/csw-system/os/nucleus/1_15/plus/src/tmf.o'
p656
aS'__out__/LNX_TI_cgt2_70/rel_n5_camera_micron/csw-system/rtslib/v2_70/fs_toll32.o'
p657
aS'__out__/LNX_TI_cgt2_70/rel_n5_camera_micron/B_TIPS/btstack/stack/rfcomm/rfc_ctl.o'
p658
aS'__out__/LNX_TI_cgt2_70/rel_n5_camera_micron/CS_ThirdParty/Beatnik/code/services/bae/Engine/Common_FLASH/AC_MixerOutput.o'
p659
aS'__out__/LNX_TI_cgt2_70/rel_n5_camera_micron/csw-system/rtslib/v2_70/strftime.o'
p660
aS'__out__/LNX_TI_cgt2_70/rel_n5_camera_micron/B_TIPS/btstack/profiles/hs/hsg_at.o'
p661
aS'__out__/LNX_TI_cgt2_70/rel_n5_camera_micron/csw-system/rtslib/v2_70/ceil.o'
p662
aS'csw-system/rtslib/v2_70/new'
p663
aS'__out__/LNX_TI_cgt2_70/rel_n5_camera_micron/CS_ThirdParty/Emuzed/jpeg_codec.a'
p664
aS'__out__/LNX_TI_cgt2_70/rel_n5_camera_micron/CS_ThirdParty/Emuzed/imaging/SourceCode/Code/Src_FLASH/Encoder/encoder_ram.o'
p665
aS'__out__/LNX_TI_cgt2_70/rel_n5_camera_micron/CS_ThirdParty/Beatnik/code/services/bae/Libraries/zlib_Source/infutil.o'
p666
aS'__out__/LNX_TI_cgt2_70/rel_n5_camera_micron/B_TIPS/btstack/add-ins/at/at_hf.o'
p667
aS'__out__/LNX_TI_cgt2_70/rel_n5_camera_micron/csw-system/rtslib/v2_70/ull_div16.o'
p668
aS'__out__/LNX_TI_cgt2_70/rel_n5_camera_micron/CS_ThirdParty/Beatnik/code/services/bae/Engine/Common/AC_System.o'
p669
aS'__out__/LNX_TI_cgt2_70/rel_n5_camera_micron/csw-system/os/nucleus/1_15/plus/src/dmce.o'
p670
aS'__out__/LNX_TI_cgt2_70/rel_n5_camera_micron/CS_ThirdParty/Emuzed/imaging/SourceCode/Code/Src_FLASH/ImageProcessing/alpha_overlay.o'
p671
aS'__out__/LNX_TI_cgt2_70/rel_n5_camera_micron/csw-system/rtslib/v2_70/fs_mul32.o'
p672
aS'__out__/LNX_TI_cgt2_70/rel_n5_camera_micron/csw-system/rtslib/v2_70/del_sof.o'
p673
aS'__out__/LNX_TI_cgt2_70/rel_n5_camera_micron/B_TIPS/btstack/add-ins/obex/obclient.o'
p674
aS'__out__/LNX_TI_cgt2_70/rel_n5_camera_micron/CS_ThirdParty/Emuzed/imaging/SourceCode/Code/Src_FLASH/Encoder/config_data_flash.o'
p675
aS'__out__/LNX_TI_cgt2_70/rel_n5_camera_micron/CS_ThirdParty/Beatnik/code/services/bae/Engine/Common/AC_DLSVoiceInnerLoops.o'
p676
aS'__out__/LNX_TI_cgt2_70/rel_n5_camera_micron/CS_ThirdParty/Beatnik/code/services/bae/Engine/Common/ACC_MPEGResFileHandler.o'
p677
aS'__out__/LNX_TI_cgt2_70/rel_n5_camera_micron/CS_ThirdParty/Beatnik/code/services/bae/Engine/Client_API/Private/mBAE_AudioPlayerCtrl.o'
p678
aS'__out__/LNX_TI_cgt2_70/rel_n5_camera_micron/B_TIPS/btstack/hcitrans/modinit/radiomod.o'
p679
aS'__out__/LNX_TI_cgt2_70/rel_n5_camera_micron/csw-system/os/nucleus/1_15/plus_specific/tct.o'
p680
atRp681
.