c__builtin__
set
p1
((lp2
S'chipsetsw/Services/ssl/src/_buildConf.ini'
p3
aS'gpf/CCD/_variantConf.ini'
p4
aS'csw-system/drv_app/usb/_buildConf.ini'
p5
aS'bmi/Condat/MS/SRC/bmi/Icons/_buildConf.ini'
p6
aS'g23m-aci/gdd_dio/_buildConf.ini'
p7
aS'csw-system/drv_core/abb/_buildConf.ini'
p8
aS'chipsetsw/Services/etm/_buildConf.ini'
p9
aS'g23m/_variantConf.ini'
p10
aS'csw-system/drv_app/rfs/_buildConf.ini'
p11
aS'chipsetsw/Services/as/_buildConf.ini'
p12
aS'csw-system/drv_app/mpk/_buildConf.ini'
p13
aS'g23m/condat/ms/src/upm/_buildConf.ini'
p14
aS'g23m-fad/tcpip/_buildConf.ini'
p15
aS'g23m/condat/com/src/driver/_buildConf.ini'
p16
aS'g23m-fad/app/_buildConf.ini'
p17
aS'g23m-gsm/mm/_buildConf.ini'
p18
aS'csw-system/drv_app/usbfax/_buildConf.ini'
p19
aS'L1/_buildConf.ini'
p20
aS'chipsetsw/Services/msl/src/_buildConf.ini'
p21
aS'csw-system/rtslib/v2_70/_buildConf.ini'
p22
aS'L1/_variantConf.ini'
p23
aS'chipsetsw/Services/omx_ssl/src/_buildConf.ini'
p24
aS'g23m-fad/udp/_buildConf.ini'
p25
aS'csw-system/drv_app/dio_il/_buildConf.ini'
p26
aS'csw-system/drv_app/uart/_buildConf.ini'
p27
aS'CS_ThirdParty/Beatnik/_variantConf.ini'
p28
aS'g23m-gprs/sm/_buildConf.ini'
p29
aS'g23m-fad/ip/_buildConf.ini'
p30
aS'CS_ThirdParty/Emuzed/_variantConf.ini'
p31
aS'csw-system/drv_app/mc/_buildConf.ini'
p32
aS'L1/layer1/cust1/_buildConf.ini'
p33
aS'csw-system/drv_app/gil/_buildConf.ini'
p34
aS'csw-system/drv_app/ffs/_buildConf.ini'
p35
aS'g23m-aci/aci_ext/_buildConf.ini'
p36
aS'g23m-fad/l2r/_buildConf.ini'
p37
aS'csw-system/drv_app/uicc/_buildConf.ini'
p38
aS'g23m-gsm/alr/_buildConf.ini'
p39
aS'csw-system/drv_app/lcd/_buildConf.ini'
p40
aS'csw-system/drv_app/rng/_buildConf.ini'
p41
aS'g23m-gsm/dl/_buildConf.ini'
p42
aS'csw-system/drv_app/lcc/_buildConf.ini'
p43
aS'g23m-gsm/l1/_buildConf.ini'
p44
aS'csw-system/drv_core/i2c/_buildConf.ini'
p45
aS'g23m-gprs/gmm/_buildConf.ini'
p46
aS'csw-system/drv_app/usbms/_buildConf.ini'
p47
aS'g23m-fad/ra/_buildConf.ini'
p48
aS'chipsetsw/Services/lls/_buildConf.ini'
p49
aS'g23m/condat/ms/src/psi/_buildConf.ini'
p50
aS'g23m-gsm/sms/_buildConf.ini'
p51
aS'csw-system/drv_core/dma/_buildConf.ini'
p52
aS'bmi/Condat/MS/SRC/bmi/_buildConf.ini'
p53
aS'g23m/condat/frame/config/_buildConf.ini'
p54
aS'g23m-aci/uart/_buildConf.ini'
p55
aS'csw-system/drv_app/rtc/_buildConf.ini'
p56
aS'csw-system/drv_app/dma/_buildConf.ini'
p57
aS'g23m/condat/com/src/config/_variantConf.ini'
p58
aS'bmi/Condat/MS/SRC/atb/_buildConf.ini'
p59
aS'g23m/condat/ms/src/ati_ext/_buildConf.ini'
p60
aS'chipsetsw/Services/img/src/_buildConf.ini'
p61
aS'C:/Python25/Lib/site-packages/sbuild/internals/environments/LNX_TI.conf'
p62
aS'g23m-aci/aci/_buildConf.ini'
p63
aS'EBTIPS/apps/_buildConf.ini'
p64
aS'chipsetsw/riviera/rvt/_buildConf.ini'
p65
aS'csw-system/drv_core/dsp_dwnld/_buildConf.ini'
p66
aS'bmi/Condat/MS/SRC/mfw/_buildConf.ini'
p67
aS'g23m-gprs/grlc/_buildConf.ini'
p68
aS'_sbuild'
p69
aS'csw-system/drv_app/hash/_buildConf.ini'
p70
aS'csw-system/drv_core/armio/_buildConf.ini'
p71
aS'chipsetsw/Services/Audio/_buildConf.ini'
p72
aS'g23m-gsm/cc/_buildConf.ini'
p73
aS'L1/layer1/cfile/_buildConf.ini'
p74
aS'csw-system/drv_core/clkm/_buildConf.ini'
p75
aS'csw-system/drv_core/security/_buildConf.ini'
p76
aS'csw-system/drv_core/timer/_buildConf.ini'
p77
aS'_buildConf.ini'
p78
aS'SConstruct'
p79
aS'csw-system/drv_app/secure_rom/_buildConf.ini'
p80
aS'g23m-gprs/llc/_buildConf.ini'
p81
aS'g23m-fad/fad/_buildConf.ini'
p82
aS'csw-system/drv_app/kpd/_buildConf.ini'
p83
aS'g23m-gprs/grr/_buildConf.ini'
p84
aS'CS_ThirdParty/Emuzed/_buildConf.ini'
p85
aS'g23m-aci/bat/_buildConf.ini'
p86
aS'EBTIPS/btl/_buildConf.ini'
p87
aS'csw-system/drv_app/camd/_buildConf.ini'
p88
aS'csw-system/drv_core/memif/_buildConf.ini'
p89
aS'g23m/condat/com/src/comlib/_buildConf.ini'
p90
aS'csw-system/drv_app/datalight/_buildConf.ini'
p91
aS'chipsetsw/Services/omx_cam/src/_buildConf.ini'
p92
aS'L1/layer1/tpu_drivers/_buildConf.ini'
p93
aS'csw-system/drv_app/power/_buildConf.ini'
p94
aS'HSW_FMStack/stack/_buildConf.ini'
p95
aS'g23m-aci/dti/_buildConf.ini'
p96
aS'g23m-gprs/cl/_buildConf.ini'
p97
aS'g23m-gprs/cci/_buildConf.ini'
p98
aS'csw-system/init_common/_buildConf.ini'
p99
aS'chipsetsw/Services/_buildConf.ini'
p100
aS'chipsetsw/Services/omx_core/src/_buildConf.ini'
p101
aS'csw-system/drv_app/gbi/_buildConf.ini'
p102
aS'csw-system/drv_core/inth/_buildConf.ini'
p103
aS'gpf/CCD/_buildConf.ini'
p104
aS'chipsetsw/Services/cst/_buildConf.ini'
p105
aS'g23m/_buildConf.ini'
p106
aS'g23m-gsm/sim/_buildConf.ini'
p107
aS'bmi/_variantConf.ini'
p108
aS'csw-system/drv_core/uart/_buildConf.ini'
p109
aS'g23m-gprs/sndcp/_buildConf.ini'
p110
aS'chipsetsw/Services/omx_img/src/_buildConf.ini'
p111
aS'csw-system/drv_app/usbtrc/_buildConf.ini'
p112
aS'B_TIPS/sbuild/_variantConf.ini'
p113
aS'bmi/_buildConf.ini'
p114
aS'g23m-fad/ppp/_buildConf.ini'
p115
aS'B_TIPS/btstack/_buildConf.ini'
p116
aS'csw-system/drv_app/rfsfat/_buildConf.ini'
p117
aS'L1/layer1/gtt_cfile/_buildConf.ini'
p118
aS'chipsetsw/Services/_variantConf.ini'
p119
aS'L1/layer1/tm_cust0/_buildConf.ini'
p120
aS'g23m-gsm/rr/_buildConf.ini'
p121
aS'g23m-aci/aci_dti_mng/_buildConf.ini'
p122
aS'g23m/condat/com/src/config/_buildConf.ini'
p123
aS'B_TIPS/sbuild/_buildConf.ini'
p124
aS'csw-system/_variantConf.ini'
p125
aS'g23m-fad/rlp/_buildConf.ini'
p126
aS'CS_ThirdParty/Beatnik/_buildConf.ini'
p127
aS'_variantConf.ini'
p128
aS'csw-system/drv_core/spi/_buildConf.ini'
p129
aS'csw-system/drv_app/buzzer/_buildConf.ini'
p130
aS'EBTIPS/bthal/_buildConf.ini'
p131
aS'g23m-gsm/ss/_buildConf.ini'
p132
aS'csw-system/drv_core/_buildConf.ini'
p133
aS'g23m-fad/t30/_buildConf.ini'
p134
aS'chipsetsw/Services/dar/_buildConf.ini'
p135
aS'g23m/nexgen/coreip/_buildConf.ini'
p136
aS'bmi/gdi/_buildConf.ini'
p137
aS'g23m-aci/l2p/_buildConf.ini'
p138
aS'chipsetsw/Services/tty/_buildConf.ini'
p139
aS'csw-system/_buildConf.ini'
p140
aS'csw-system/drv_app/die/_buildConf.ini'
p141
aS'chipsetsw/Services/mks/_buildConf.ini'
p142
atRp143
.