(dp1
S''
(lp2
S'__out__/LNX_TI_cgt2_70/rel_n5_camera_micron/si'
p3
aS'__out__/LNX_TI_cgt2_70/rel_n5_camera_micron/config'
p4
asS'g23m-gsm/mm'
p5
(lp6
S'__out__/LNX_TI_cgt2_70/rel_n5_camera_micron/g23m-gsm/mm'
p7
asS'ebtips/bthal'
p8
(lp9
S'__out__/LNX_TI_cgt2_70/rel_n5_camera_micron/EBTIPS/bthal'
p10
asS'chipsetsw/Services/Audio'
p11
(lp12
S'__out__/LNX_TI_cgt2_70/rel_n5_camera_micron/chipsetsw/Services/Audio'
p13
asS'csw-system/drv_core/spi'
p14
(lp15
S'__out__/LNX_TI_cgt2_70/rel_n5_camera_micron/csw-system/drv_core/spi'
p16
asS'csw-system/drv_app/gil'
p17
(lp18
S'__out__/LNX_TI_cgt2_70/rel_n5_camera_micron/csw-system/drv_app/gil'
p19
asS'bmi/Condat/MS/SRC/atb'
p20
(lp21
S'__out__/LNX_TI_cgt2_70/rel_n5_camera_micron/bmi/Condat/MS/SRC/atb'
p22
asS'csw-system/drv_core/security'
p23
(lp24
S'__out__/LNX_TI_cgt2_70/rel_n5_camera_micron/csw-system/drv_core/security'
p25
asS'g23m-gsm/l1'
p26
(lp27
S'__out__/LNX_TI_cgt2_70/rel_n5_camera_micron/g23m-gsm/l1'
p28
asS'g23m/condat/com/src/comlib'
p29
(lp30
S'__out__/LNX_TI_cgt2_70/rel_n5_camera_micron/g23m/condat/com/src/comlib'
p31
asS'bmi/Condat/MS/SRC/bmi'
p32
(lp33
S'__out__/LNX_TI_cgt2_70/rel_n5_camera_micron/bmi/Condat/MS/SRC/bmi'
p34
asS'csw-system/drv_core/dma'
p35
(lp36
S'__out__/LNX_TI_cgt2_70/rel_n5_camera_micron/csw-system/drv_core/dma'
p37
asS'chipsetsw/Services/tty'
p38
(lp39
S'__out__/LNX_TI_cgt2_70/rel_n5_camera_micron/chipsetsw/Services/tty'
p40
asS'g23m-fad/ra'
p41
(lp42
S'__out__/LNX_TI_cgt2_70/rel_n5_camera_micron/g23m-fad/ra'
p43
asS'g23m/condat/ms/src/ati_ext'
p44
(lp45
S'__out__/LNX_TI_cgt2_70/rel_n5_camera_micron/g23m/condat/ms/src/ati_ext'
p46
asS'ebtips/btl'
p47
(lp48
S'__out__/LNX_TI_cgt2_70/rel_n5_camera_micron/EBTIPS/btl'
p49
asS'chipsetsw/Services/omx_cam/src'
p50
(lp51
S'__out__/LNX_TI_cgt2_70/rel_n5_camera_micron/chipsetsw/Services/omx_cam/src'
p52
asS'g23m-aci/uart'
p53
(lp54
S'__out__/LNX_TI_cgt2_70/rel_n5_camera_micron/g23m-aci/uart'
p55
asS'csw-system/drv_core/timer'
p56
(lp57
S'__out__/LNX_TI_cgt2_70/rel_n5_camera_micron/csw-system/drv_core/timer'
p58
asS'g23m-gprs/gmm'
p59
(lp60
S'__out__/LNX_TI_cgt2_70/rel_n5_camera_micron/g23m-gprs/gmm'
p61
asS'g23m-gprs/grr'
p62
(lp63
S'__out__/LNX_TI_cgt2_70/rel_n5_camera_micron/g23m-gprs/grr'
p64
asS'g23m-fad/ip'
p65
(lp66
S'__out__/LNX_TI_cgt2_70/rel_n5_camera_micron/g23m-fad/ip'
p67
asS'g23m-gsm/sms'
p68
(lp69
S'__out__/LNX_TI_cgt2_70/rel_n5_camera_micron/g23m-gsm/sms'
p70
asS'csw-system/drv_core/uart'
p71
(lp72
S'__out__/LNX_TI_cgt2_70/rel_n5_camera_micron/csw-system/drv_core/uart'
p73
asS'csw-system/drv_core'
p74
(lp75
S'__out__/LNX_TI_cgt2_70/rel_n5_camera_micron/csw-system/drv_core'
p76
asS'csw-system/drv_app/datalight'
p77
(lp78
S'__out__/LNX_TI_cgt2_70/rel_n5_camera_micron/csw-system/drv_app/datalight'
p79
asS'csw-system/drv_app/dio_il'
p80
(lp81
S'__out__/LNX_TI_cgt2_70/rel_n5_camera_micron/csw-system/drv_app/dio_il'
p82
asS'g23m-gsm/dl'
p83
(lp84
S'__out__/LNX_TI_cgt2_70/rel_n5_camera_micron/g23m-gsm/dl'
p85
asS'HSW_FMStack/stack'
p86
(lp87
S'__out__/LNX_TI_cgt2_70/rel_n5_camera_micron/HSW_FMStack/stack'
p88
asS'g23m-gprs/cl'
p89
(lp90
S'__out__/LNX_TI_cgt2_70/rel_n5_camera_micron/g23m-gprs/cl'
p91
asS'g23m-fad/t30'
p92
(lp93
S'__out__/LNX_TI_cgt2_70/rel_n5_camera_micron/g23m-fad/t30'
p94
asS'g23m-fad/ppp'
p95
(lp96
S'__out__/LNX_TI_cgt2_70/rel_n5_camera_micron/g23m-fad/ppp'
p97
aS'__out__/LNX_TI_cgt2_70/rel_n5_camera_micron/g23m-fad/ppp_ir'
p98
asS'g23m-gsm/ss'
p99
(lp100
S'__out__/LNX_TI_cgt2_70/rel_n5_camera_micron/g23m-gsm/ss'
p101
asS'csw-system/drv_core/armio'
p102
(lp103
S'__out__/LNX_TI_cgt2_70/rel_n5_camera_micron/csw-system/drv_core/armio'
p104
asS'csw-system/drv_app/lcc'
p105
(lp106
S'__out__/LNX_TI_cgt2_70/rel_n5_camera_micron/csw-system/drv_app/lcc'
p107
asS'csw-system/drv_app/power'
p108
(lp109
S'__out__/LNX_TI_cgt2_70/rel_n5_camera_micron/csw-system/drv_app/power'
p110
asS'csw-system/drv_app/mc'
p111
(lp112
S'__out__/LNX_TI_cgt2_70/rel_n5_camera_micron/csw-system/drv_app/mc'
p113
asS'csw-system/drv_app/buzzer'
p114
(lp115
S'__out__/LNX_TI_cgt2_70/rel_n5_camera_micron/csw-system/drv_app/buzzer'
p116
asS'csw-system/drv_app/hash'
p117
(lp118
S'__out__/LNX_TI_cgt2_70/rel_n5_camera_micron/csw-system/drv_app/hash'
p119
asS'chipsetsw/Services/msl/src'
p120
(lp121
S'__out__/LNX_TI_cgt2_70/rel_n5_camera_micron/chipsetsw/Services/msl/src'
p122
asS'g23m-gsm/cc'
p123
(lp124
S'__out__/LNX_TI_cgt2_70/rel_n5_camera_micron/g23m-gsm/cc'
p125
asS'L1/layer1/cust1'
p126
(lp127
S'__out__/LNX_TI_cgt2_70/rel_n5_camera_micron/L1/layer1/cust1'
p128
asS'csw-system/drv_app/mpk'
p129
(lp130
S'__out__/LNX_TI_cgt2_70/rel_n5_camera_micron/csw-system/drv_app/mpk'
p131
asS'csw-system/drv_app/gbi'
p132
(lp133
S'__out__/LNX_TI_cgt2_70/rel_n5_camera_micron/csw-system/drv_app/gbi'
p134
asS'g23m-aci/aci_dti_mng'
p135
(lp136
S'__out__/LNX_TI_cgt2_70/rel_n5_camera_micron/g23m-aci/aci_dti_mng'
p137
asS'g23m/nexgen/coreip'
p138
(lp139
S'__out__/LNX_TI_cgt2_70/rel_n5_camera_micron/g23m/nexgen/coreip'
p140
asS'g23m/condat/ms/src/upm'
p141
(lp142
S'__out__/LNX_TI_cgt2_70/rel_n5_camera_micron/g23m/condat/ms/src/upm'
p143
asS'csw-system/drv_app/rtc'
p144
(lp145
S'__out__/LNX_TI_cgt2_70/rel_n5_camera_micron/csw-system/drv_app/rtc'
p146
asS'B_TIPS/sbuild'
p147
(lp148
S'__out__/LNX_TI_cgt2_70/rel_n5_camera_micron/B_TIPS/sbuild'
p149
asS'g23m-gsm/rr'
p150
(lp151
S'__out__/LNX_TI_cgt2_70/rel_n5_camera_micron/g23m-gsm/rr'
p152
asS'chipsetsw/Services/dar'
p153
(lp154
S'__out__/LNX_TI_cgt2_70/rel_n5_camera_micron/chipsetsw/Services/dar'
p155
asS'csw-system'
p156
(lp157
S'__out__/LNX_TI_cgt2_70/rel_n5_camera_micron/csw-system'
p158
asS'L1/layer1/gtt_cfile'
p159
(lp160
S'__out__/LNX_TI_cgt2_70/rel_n5_camera_micron/L1/layer1/gtt_cfile'
p161
asS'g23m-aci/bat'
p162
(lp163
S'__out__/LNX_TI_cgt2_70/rel_n5_camera_micron/g23m-aci/bat'
p164
asS'g23m/condat/frame/config'
p165
(lp166
S'__out__/LNX_TI_cgt2_70/rel_n5_camera_micron/g23m/condat/frame/config'
p167
aS'__out__/LNX_TI_cgt2_70/rel_n5_camera_micron/g23m/condat/frame/config/ir'
p168
asS'g23m-fad/fad'
p169
(lp170
S'__out__/LNX_TI_cgt2_70/rel_n5_camera_micron/g23m-fad/fad'
p171
asS'g23m-fad/l2r'
p172
(lp173
S'__out__/LNX_TI_cgt2_70/rel_n5_camera_micron/g23m-fad/l2r'
p174
asS'g23m-gprs/cci'
p175
(lp176
S'__out__/LNX_TI_cgt2_70/rel_n5_camera_micron/g23m-gprs/cci'
p177
aS'__out__/LNX_TI_cgt2_70/rel_n5_camera_micron/g23m-gprs/cci_ir'
p178
asS'g23m/condat/ms/src/psi'
p179
(lp180
S'__out__/LNX_TI_cgt2_70/rel_n5_camera_micron/g23m/condat/ms/src/psi'
p181
asS'bmi/Condat/MS/SRC/bmi/Icons'
p182
(lp183
S'__out__/LNX_TI_cgt2_70/rel_n5_camera_micron/bmi/Condat/MS/SRC/bmi/Icons'
p184
asS'chipsetsw/Services/etm'
p185
(lp186
S'__out__/LNX_TI_cgt2_70/rel_n5_camera_micron/chipsetsw/Services/etm'
p187
asS'csw-system/drv_core/abb'
p188
(lp189
S'__out__/LNX_TI_cgt2_70/rel_n5_camera_micron/csw-system/drv_core/abb'
p190
asS'csw-system/drv_app/rfsfat'
p191
(lp192
S'__out__/LNX_TI_cgt2_70/rel_n5_camera_micron/csw-system/drv_app/rfsfat'
p193
asS'g23m-fad/udp'
p194
(lp195
S'__out__/LNX_TI_cgt2_70/rel_n5_camera_micron/g23m-fad/udp'
p196
asS'g23m-gprs/sndcp'
p197
(lp198
S'__out__/LNX_TI_cgt2_70/rel_n5_camera_micron/g23m-gprs/sndcp'
p199
asS'bmi/gdi'
p200
(lp201
S'__out__/LNX_TI_cgt2_70/rel_n5_camera_micron/bmi/gdi'
p202
asS'g23m-aci/l2p'
p203
(lp204
S'__out__/LNX_TI_cgt2_70/rel_n5_camera_micron/g23m-aci/l2p'
p205
asS'g23m-fad/app'
p206
(lp207
S'__out__/LNX_TI_cgt2_70/rel_n5_camera_micron/g23m-fad/app'
p208
asS'g23m/condat/com/src/config'
p209
(lp210
S'__out__/LNX_TI_cgt2_70/rel_n5_camera_micron/g23m/condat/com/src/config'
p211
asS'g23m'
p212
(lp213
S'__out__/LNX_TI_cgt2_70/rel_n5_camera_micron/g23m'
p214
aS'__out__/LNX_TI_cgt2_70/rel_n5_camera_micron/cdginc'
p215
asS'csw-system/drv_app/camd'
p216
(lp217
S'__out__/LNX_TI_cgt2_70/rel_n5_camera_micron/csw-system/drv_app/camd'
p218
asS'g23m-aci/gdd_dio'
p219
(lp220
S'__out__/LNX_TI_cgt2_70/rel_n5_camera_micron/g23m-aci/gdd_dio'
p221
asS'chipsetsw/Services/omx_core/src'
p222
(lp223
S'__out__/LNX_TI_cgt2_70/rel_n5_camera_micron/chipsetsw/Services/omx_core/src'
p224
asS'csw-system/drv_core/inth'
p225
(lp226
S'__out__/LNX_TI_cgt2_70/rel_n5_camera_micron/csw-system/drv_core/inth'
p227
asS'L1/layer1/tpu_drivers'
p228
(lp229
S'__out__/LNX_TI_cgt2_70/rel_n5_camera_micron/L1/layer1/tpu_drivers'
p230
asS'csw-system/drv_app/usbms'
p231
(lp232
S'__out__/LNX_TI_cgt2_70/rel_n5_camera_micron/csw-system/drv_app/usbms'
p233
asS'g23m-aci/aci'
p234
(lp235
S'__out__/LNX_TI_cgt2_70/rel_n5_camera_micron/g23m-aci/aci'
p236
asS'gpf/CCD'
p237
(lp238
S'__out__/LNX_TI_cgt2_70/rel_n5_camera_micron/gpf/CCD'
p239
aS'__out__/LNX_TI_cgt2_70/rel_n5_camera_micron/gpf/CCD/dll'
p240
asS'bmi/Condat/MS/SRC/mfw'
p241
(lp242
S'__out__/LNX_TI_cgt2_70/rel_n5_camera_micron/bmi/Condat/MS/SRC/mfw'
p243
asS'csw-system/drv_app/uart'
p244
(lp245
S'__out__/LNX_TI_cgt2_70/rel_n5_camera_micron/csw-system/drv_app/uart'
p246
asS'CS_ThirdParty/Beatnik'
p247
(lp248
S'__out__/LNX_TI_cgt2_70/rel_n5_camera_micron/CS_ThirdParty/Beatnik'
p249
asS'bmi'
p250
(lp251
S'__out__/LNX_TI_cgt2_70/rel_n5_camera_micron/bmi'
p252
asS'chipsetsw/Services'
p253
(lp254
S'__out__/LNX_TI_cgt2_70/rel_n5_camera_micron/chipsetsw/Services'
p255
asS'g23m-gprs/llc'
p256
(lp257
S'__out__/LNX_TI_cgt2_70/rel_n5_camera_micron/g23m-gprs/llc'
p258
asS'csw-system/drv_app/usbfax'
p259
(lp260
S'__out__/LNX_TI_cgt2_70/rel_n5_camera_micron/csw-system/drv_app/usbfax'
p261
asS'csw-system/drv_core/i2c'
p262
(lp263
S'__out__/LNX_TI_cgt2_70/rel_n5_camera_micron/csw-system/drv_core/i2c'
p264
asS'chipsetsw/Services/cst'
p265
(lp266
S'__out__/LNX_TI_cgt2_70/rel_n5_camera_micron/chipsetsw/Services/cst'
p267
asS'ebtips/apps'
p268
(lp269
S'__out__/LNX_TI_cgt2_70/rel_n5_camera_micron/EBTIPS/apps'
p270
asS'g23m-fad/rlp'
p271
(lp272
S'__out__/LNX_TI_cgt2_70/rel_n5_camera_micron/g23m-fad/rlp'
p273
asS'csw-system/drv_app/uicc'
p274
(lp275
S'__out__/LNX_TI_cgt2_70/rel_n5_camera_micron/csw-system/drv_app/uicc'
p276
asS'B_TIPS/btstack'
p277
(lp278
S'__out__/LNX_TI_cgt2_70/rel_n5_camera_micron/B_TIPS/btstack'
p279
asS'csw-system/drv_app/die'
p280
(lp281
S'__out__/LNX_TI_cgt2_70/rel_n5_camera_micron/csw-system/drv_app/die'
p282
asS'csw-system/drv_app/secure_rom'
p283
(lp284
S'__out__/LNX_TI_cgt2_70/rel_n5_camera_micron/csw-system/drv_app/secure_rom'
p285
asS'chipsetsw/riviera/rvt'
p286
(lp287
S'__out__/LNX_TI_cgt2_70/rel_n5_camera_micron/chipsetsw/riviera/rvt'
p288
asS'g23m-aci/dti'
p289
(lp290
S'__out__/LNX_TI_cgt2_70/rel_n5_camera_micron/g23m-aci/dti'
p291
asS'csw-system/drv_app/lcd'
p292
(lp293
S'__out__/LNX_TI_cgt2_70/rel_n5_camera_micron/csw-system/drv_app/lcd'
p294
asS'chipsetsw/Services/mks'
p295
(lp296
S'__out__/LNX_TI_cgt2_70/rel_n5_camera_micron/chipsetsw/Services/mks'
p297
asS'csw-system/drv_app/dma'
p298
(lp299
S'__out__/LNX_TI_cgt2_70/rel_n5_camera_micron/csw-system/drv_app/dma'
p300
asS'csw-system/init_common'
p301
(lp302
S'__out__/LNX_TI_cgt2_70/rel_n5_camera_micron/csw-system/init_common'
p303
asS'g23m-gprs/grlc'
p304
(lp305
S'__out__/LNX_TI_cgt2_70/rel_n5_camera_micron/g23m-gprs/grlc'
p306
aS'__out__/LNX_TI_cgt2_70/rel_n5_camera_micron/g23m-gprs/grlc_ir'
p307
asS'csw-system/drv_core/memif'
p308
(lp309
S'__out__/LNX_TI_cgt2_70/rel_n5_camera_micron/csw-system/drv_core/memif'
p310
asS'g23m-gsm/alr'
p311
(lp312
S'__out__/LNX_TI_cgt2_70/rel_n5_camera_micron/g23m-gsm/alr'
p313
asS'chipsetsw/Services/img/src'
p314
(lp315
S'__out__/LNX_TI_cgt2_70/rel_n5_camera_micron/chipsetsw/Services/img/src'
p316
asS'chipsetsw/Services/as'
p317
(lp318
S'__out__/LNX_TI_cgt2_70/rel_n5_camera_micron/chipsetsw/Services/as'
p319
asS'csw-system/drv_app/ffs'
p320
(lp321
S'__out__/LNX_TI_cgt2_70/rel_n5_camera_micron/csw-system/drv_app/ffs'
p322
asS'csw-system/drv_core/clkm'
p323
(lp324
S'__out__/LNX_TI_cgt2_70/rel_n5_camera_micron/csw-system/drv_core/clkm'
p325
asS'g23m-fad/tcpip'
p326
(lp327
S'__out__/LNX_TI_cgt2_70/rel_n5_camera_micron/g23m-fad/tcpip'
p328
asS'csw-system/drv_app/kpd'
p329
(lp330
S'__out__/LNX_TI_cgt2_70/rel_n5_camera_micron/csw-system/drv_app/kpd'
p331
asS'g23m-gsm/sim'
p332
(lp333
S'__out__/LNX_TI_cgt2_70/rel_n5_camera_micron/g23m-gsm/sim'
p334
asS'csw-system/rtslib/v2_70'
p335
(lp336
S'__out__/LNX_TI_cgt2_70/rel_n5_camera_micron/csw-system/rtslib/v2_70'
p337
asS'g23m-gprs/sm'
p338
(lp339
S'__out__/LNX_TI_cgt2_70/rel_n5_camera_micron/g23m-gprs/sm'
p340
asS'CS_ThirdParty/Emuzed'
p341
(lp342
S'__out__/LNX_TI_cgt2_70/rel_n5_camera_micron/CS_ThirdParty/Emuzed'
p343
asS'chipsetsw/Services/ssl/src'
p344
(lp345
S'__out__/LNX_TI_cgt2_70/rel_n5_camera_micron/chipsetsw/Services/ssl/src'
p346
asS'chipsetsw/Services/lls'
p347
(lp348
S'__out__/LNX_TI_cgt2_70/rel_n5_camera_micron/chipsetsw/Services/lls'
p349
asS'chipsetsw/Services/omx_ssl/src'
p350
(lp351
S'__out__/LNX_TI_cgt2_70/rel_n5_camera_micron/chipsetsw/Services/omx_ssl/src'
p352
asS'csw-system/drv_core/dsp_dwnld'
p353
(lp354
S'__out__/LNX_TI_cgt2_70/rel_n5_camera_micron/csw-system/drv_core/dsp_dwnld'
p355
asS'L1/layer1/tm_cust0'
p356
(lp357
S'__out__/LNX_TI_cgt2_70/rel_n5_camera_micron/L1/layer1/tm_cust0'
p358
asS'g23m/condat/com/src/driver'
p359
(lp360
S'__out__/LNX_TI_cgt2_70/rel_n5_camera_micron/g23m/condat/com/src/driver'
p361
asS'L1'
p362
(lp363
S'__out__/LNX_TI_cgt2_70/rel_n5_camera_micron/L1'
p364
asS'csw-system/drv_app/rfs'
p365
(lp366
S'__out__/LNX_TI_cgt2_70/rel_n5_camera_micron/csw-system/drv_app/rfs'
p367
asS'csw-system/drv_app/usb'
p368
(lp369
S'__out__/LNX_TI_cgt2_70/rel_n5_camera_micron/csw-system/drv_app/usb'
p370
asS'chipsetsw/Services/omx_img/src'
p371
(lp372
S'__out__/LNX_TI_cgt2_70/rel_n5_camera_micron/chipsetsw/Services/omx_img/src'
p373
asS'csw-system/drv_app/rng'
p374
(lp375
S'__out__/LNX_TI_cgt2_70/rel_n5_camera_micron/csw-system/drv_app/rng'
p376
asS'L1/layer1/cfile'
p377
(lp378
S'__out__/LNX_TI_cgt2_70/rel_n5_camera_micron/L1/layer1/cfile'
p379
aS'__out__/LNX_TI_cgt2_70/rel_n5_camera_micron/L1/layer1'
p380
asS'csw-system/drv_app/usbtrc'
p381
(lp382
S'__out__/LNX_TI_cgt2_70/rel_n5_camera_micron/csw-system/drv_app/usbtrc'
p383
asS'g23m-aci/aci_ext'
p384
(lp385
S'__out__/LNX_TI_cgt2_70/rel_n5_camera_micron/g23m-aci/aci_ext'
p386
as.