(dp1
S'str2ind.o'
p2
S'__out__/LNX_TI_cgt2_70/rel_n5_camera_micron/si/str2ind.o'
p3
sS'g23m-fad/ip/ip.a'
p4
S'__out__/LNX_TI_cgt2_70/rel_n5_camera_micron/g23m-fad/ip/ip.a'
p5
sS'csw-system/drv_app/lcd/lcd_drv_flash.a'
p6
S'__out__/LNX_TI_cgt2_70/rel_n5_camera_micron/csw-system/drv_app/lcd/lcd_drv_flash.a'
p7
sS'chipsetsw/Services/etm/etm.a'
p8
S'__out__/LNX_TI_cgt2_70/rel_n5_camera_micron/chipsetsw/Services/etm/etm.a'
p9
sS'csw-system/drv_app/power/power.a'
p10
S'__out__/LNX_TI_cgt2_70/rel_n5_camera_micron/csw-system/drv_app/power/power.a'
p11
sS'ebtips/bthal/bthal.a'
p12
S'__out__/LNX_TI_cgt2_70/rel_n5_camera_micron/EBTIPS/bthal/bthal.a'
p13
sS'bmi/Condat/MS/SRC/bmi/bmi.a'
p14
S'__out__/LNX_TI_cgt2_70/rel_n5_camera_micron/bmi/Condat/MS/SRC/bmi/bmi.a'
p15
sS'g23m-fad/ppp/ppp.a'
p16
S'__out__/LNX_TI_cgt2_70/rel_n5_camera_micron/g23m-fad/ppp/ppp.a'
p17
sS'csw-system/drv_core/memif/sys_memif.o'
p18
S'__out__/LNX_TI_cgt2_70/rel_n5_camera_micron/csw-system/drv_core/memif/sys_memif.o'
p19
sS'rel_n5_camera_micron.cmd'
p20
S'__out__/LNX_TI_cgt2_70/rel_n5_camera_micron/si/rel_n5_camera_micron.cmd'
p21
sS'g23m-aci/l2p/l2p.a'
p22
S'__out__/LNX_TI_cgt2_70/rel_n5_camera_micron/g23m-aci/l2p/l2p.a'
p23
sS'csw-system/drv_core/dsp_dwnld/leadapi.o'
p24
S'__out__/LNX_TI_cgt2_70/rel_n5_camera_micron/csw-system/drv_core/dsp_dwnld/leadapi.o'
p25
sS'csw-system/drv_core/abb/bspTwl3029_Audio_pg2x.o'
p26
S'__out__/LNX_TI_cgt2_70/rel_n5_camera_micron/csw-system/drv_core/abb/bspTwl3029_Audio_pg2x.o'
p27
sS'g23m-aci/aci/aci.a'
p28
S'__out__/LNX_TI_cgt2_70/rel_n5_camera_micron/g23m-aci/aci/aci.a'
p29
sS'csw-system/drv_app/usbtrc/usbtrc.a'
p30
S'__out__/LNX_TI_cgt2_70/rel_n5_camera_micron/csw-system/drv_app/usbtrc/usbtrc.a'
p31
sS'g23m-gsm/mm/mm.a'
p32
S'__out__/LNX_TI_cgt2_70/rel_n5_camera_micron/g23m-gsm/mm/mm.a'
p33
sS'csw-system/rtslib/v2_70/rts16le_int_ram.a'
p34
S'__out__/LNX_TI_cgt2_70/rel_n5_camera_micron/csw-system/rtslib/v2_70/rts16le_int_ram.a'
p35
sS'csw-system/drv_core/abb/bspTwl3029_UsbOtg_pg2x.o'
p36
S'__out__/LNX_TI_cgt2_70/rel_n5_camera_micron/csw-system/drv_core/abb/bspTwl3029_UsbOtg_pg2x.o'
p37
sS'g23m-aci/gdd_dio/gdd_dio.a'
p38
S'__out__/LNX_TI_cgt2_70/rel_n5_camera_micron/g23m-aci/gdd_dio/gdd_dio.a'
p39
sS'csw-system/drv_app/usbms/usbms.a'
p40
S'__out__/LNX_TI_cgt2_70/rel_n5_camera_micron/csw-system/drv_app/usbms/usbms.a'
p41
sS'chipsetsw/Services/lls/lls.a'
p42
S'__out__/LNX_TI_cgt2_70/rel_n5_camera_micron/chipsetsw/Services/lls/lls.a'
p43
sS'g23m-gsm/alr/alr.a'
p44
S'__out__/LNX_TI_cgt2_70/rel_n5_camera_micron/g23m-gsm/alr/alr.a'
p45
sS'rel_n5_camera_micron.m0'
p46
S'__out__/LNX_TI_cgt2_70/rel_n5_camera_micron/si/rel_n5_camera_micron.m0'
p47
sS'csw-system/drv_core/abb/bspTwl3029_IntC_pg2x.o'
p48
S'__out__/LNX_TI_cgt2_70/rel_n5_camera_micron/csw-system/drv_core/abb/bspTwl3029_IntC_pg2x.o'
p49
sS'g23m-fad/ra/ra.a'
p50
S'__out__/LNX_TI_cgt2_70/rel_n5_camera_micron/g23m-fad/ra/ra.a'
p51
sS'g23m-aci/dti/dti.a'
p52
S'__out__/LNX_TI_cgt2_70/rel_n5_camera_micron/g23m-aci/dti/dti.a'
p53
sS'rel_n5_camera_micron_merge.out'
p54
S'__out__/LNX_TI_cgt2_70/rel_n5_camera_micron/si/rel_n5_camera_micron_merge.out'
p55
sS'csw-system/drv_core/abb/bspTwl3029_Aux_pg2x.o'
p56
S'__out__/LNX_TI_cgt2_70/rel_n5_camera_micron/csw-system/drv_core/abb/bspTwl3029_Aux_pg2x.o'
p57
sS'csw-system/drv_app/gil/gil.a'
p58
S'__out__/LNX_TI_cgt2_70/rel_n5_camera_micron/csw-system/drv_app/gil/gil.a'
p59
sS'g23m-aci/uart/uart_b_lib.a'
p60
S'__out__/LNX_TI_cgt2_70/rel_n5_camera_micron/g23m-aci/uart/uart_b_lib.a'
p61
sS'L1/layer1/cfile/p_cfile/l1p_sync_intram.c'
p62
S'__out__/LNX_TI_cgt2_70/rel_n5_camera_micron/L1/layer1/p_cfile/l1p_sync_intram.c'
p63
sS'g23m-gprs/cl/cl.a'
p64
S'__out__/LNX_TI_cgt2_70/rel_n5_camera_micron/g23m-gprs/cl/cl.a'
p65
sS'L1/layer1/cfile/cfile/l1_sync_intram.o'
p66
S'__out__/LNX_TI_cgt2_70/rel_n5_camera_micron/L1/layer1/cfile/l1_sync_intram.o'
p67
sS'csw-system/drv_app/ffs/ffs_drv.a'
p68
S'__out__/LNX_TI_cgt2_70/rel_n5_camera_micron/csw-system/drv_app/ffs/ffs_drv.a'
p69
sS'L1/layer1/cfile/l1_int.a'
p70
S'__out__/LNX_TI_cgt2_70/rel_n5_camera_micron/L1/layer1/cfile/l1_int.a'
p71
sS'bmi/Condat/MS/SRC/mfw/mfw.a'
p72
S'__out__/LNX_TI_cgt2_70/rel_n5_camera_micron/bmi/Condat/MS/SRC/mfw/mfw.a'
p73
sS'g23m-gsm/sms/sms.a'
p74
S'__out__/LNX_TI_cgt2_70/rel_n5_camera_micron/g23m-gsm/sms/sms.a'
p75
sS'bmi/gdi/gdi.a'
p76
S'__out__/LNX_TI_cgt2_70/rel_n5_camera_micron/bmi/gdi/gdi.a'
p77
sS'csw-system/drv_app/datalight/datalight.a'
p78
S'__out__/LNX_TI_cgt2_70/rel_n5_camera_micron/csw-system/drv_app/datalight/datalight.a'
p79
sS'csw-system/drv_core/abb/bspTwl3029_I2c_pg2x.o'
p80
S'__out__/LNX_TI_cgt2_70/rel_n5_camera_micron/csw-system/drv_core/abb/bspTwl3029_I2c_pg2x.o'
p81
sS'g23m/condat/com/src/driver/driver.a'
p82
S'__out__/LNX_TI_cgt2_70/rel_n5_camera_micron/g23m/condat/com/src/driver/driver.a'
p83
sS'csw-system/drv_core/inth/sys_inth.o'
p84
S'__out__/LNX_TI_cgt2_70/rel_n5_camera_micron/csw-system/drv_core/inth/sys_inth.o'
p85
sS'csw-system/drv_app/rng/rng.a'
p86
S'__out__/LNX_TI_cgt2_70/rel_n5_camera_micron/csw-system/drv_app/rng/rng.a'
p87
sS'chipsetsw/Services/cst/cst.a'
p88
S'__out__/LNX_TI_cgt2_70/rel_n5_camera_micron/chipsetsw/Services/cst/cst.a'
p89
sS'csw-system/drv_app/usb/usb.a'
p90
S'__out__/LNX_TI_cgt2_70/rel_n5_camera_micron/csw-system/drv_app/usb/usb.a'
p91
sS'csw-system/drv_core/i2c/bspI2cDelay.o'
p92
S'__out__/LNX_TI_cgt2_70/rel_n5_camera_micron/csw-system/drv_core/i2c/bspI2cDelay.o'
p93
sS'chipsetsw/Services/img/src/__out__/LNX_TI_cgt2_70/rel_n5_camera_micron/chipsetsw/Services/img/img.a'
p94
S'__out__/LNX_TI_cgt2_70/rel_n5_camera_micron/chipsetsw/Services/img/img.a'
p95
sS'L1/layer1/cfile/p_cfile/l1p_sync_intram.o'
p96
S'__out__/LNX_TI_cgt2_70/rel_n5_camera_micron/L1/layer1/p_cfile/l1p_sync_intram.o'
p97
sS'L1/layer1/cfile/l1_ext.a'
p98
S'__out__/LNX_TI_cgt2_70/rel_n5_camera_micron/L1/layer1/cfile/l1_ext.a'
p99
sS'g23m-fad/tcpip/tcpip.a'
p100
S'__out__/LNX_TI_cgt2_70/rel_n5_camera_micron/g23m-fad/tcpip/tcpip.a'
p101
sS'csw-system/drv_core/armio/armio.o'
p102
S'__out__/LNX_TI_cgt2_70/rel_n5_camera_micron/csw-system/drv_core/armio/armio.o'
p103
sS'g23m-fad/rlp/rlp.a'
p104
S'__out__/LNX_TI_cgt2_70/rel_n5_camera_micron/g23m-fad/rlp/rlp.a'
p105
sS'chipsetsw/Services/omx_cam/src/__out__/LNX_TI_cgt2_70/rel_n5_camera_micron/chipsetsw/Services/omx_cam/omx_cam.a'
p106
S'__out__/LNX_TI_cgt2_70/rel_n5_camera_micron/chipsetsw/Services/omx_cam/omx_cam.a'
p107
sS'g23m-gsm/cc/cc.a'
p108
S'__out__/LNX_TI_cgt2_70/rel_n5_camera_micron/g23m-gsm/cc/cc.a'
p109
sS'rel_n5_camera_micron_merge.m0'
p110
S'__out__/LNX_TI_cgt2_70/rel_n5_camera_micron/si/rel_n5_camera_micron_merge.m0'
p111
sS'csw-system/drv_core/clkm/clkm.o'
p112
S'__out__/LNX_TI_cgt2_70/rel_n5_camera_micron/csw-system/drv_core/clkm/clkm.o'
p113
sS'g23m/mconst.cdg'
p114
S'__out__/LNX_TI_cgt2_70/rel_n5_camera_micron/cdginc/mconst.cdg'
p115
sS'csw-system/drv_core/abb/bspTwl3029_Bci.o'
p116
S'__out__/LNX_TI_cgt2_70/rel_n5_camera_micron/csw-system/drv_core/abb/bspTwl3029_Bci.o'
p117
sS'csw-system/drv_core/timer/timer.o'
p118
S'__out__/LNX_TI_cgt2_70/rel_n5_camera_micron/csw-system/drv_core/timer/timer.o'
p119
sS'csw-system/drv_core/dma/sys_dma.o'
p120
S'__out__/LNX_TI_cgt2_70/rel_n5_camera_micron/csw-system/drv_core/dma/sys_dma.o'
p121
sS'ebtips/apps/apps.a'
p122
S'__out__/LNX_TI_cgt2_70/rel_n5_camera_micron/EBTIPS/apps/apps.a'
p123
sS'csw-system/drv_core/dma/sys_dma_it.o'
p124
S'__out__/LNX_TI_cgt2_70/rel_n5_camera_micron/csw-system/drv_core/dma/sys_dma_it.o'
p125
sS'g23m-gsm/l1/l1_pei.a'
p126
S'__out__/LNX_TI_cgt2_70/rel_n5_camera_micron/g23m-gsm/l1/l1_pei.a'
p127
sS'csw-system/drv_core/abb/bspTwl3029_I2c.o'
p128
S'__out__/LNX_TI_cgt2_70/rel_n5_camera_micron/csw-system/drv_core/abb/bspTwl3029_I2c.o'
p129
sS'L1/layer1/cfile/cfile/l1_sync_intram.c'
p130
S'__out__/LNX_TI_cgt2_70/rel_n5_camera_micron/L1/layer1/cfile/l1_sync_intram.c'
p131
sS'csw-system/drv_core/abb/bspTwl3029_Power.o'
p132
S'__out__/LNX_TI_cgt2_70/rel_n5_camera_micron/csw-system/drv_core/abb/bspTwl3029_Power.o'
p133
sS'csw-system/drv_core/timer/timer1.o'
p134
S'__out__/LNX_TI_cgt2_70/rel_n5_camera_micron/csw-system/drv_core/timer/timer1.o'
p135
sS'csw-system/drv_app/camd/camd.a'
p136
S'__out__/LNX_TI_cgt2_70/rel_n5_camera_micron/csw-system/drv_app/camd/camd.a'
p137
sS'csw-system/drv_app/uart/uart_drv.a'
p138
S'__out__/LNX_TI_cgt2_70/rel_n5_camera_micron/csw-system/drv_app/uart/uart_drv.a'
p139
sS'g23m/g23m.a'
p140
S'__out__/LNX_TI_cgt2_70/rel_n5_camera_micron/g23m/g23m.a'
p141
sS'g23m/nexgen/coreip/nexgen.a'
p142
S'__out__/LNX_TI_cgt2_70/rel_n5_camera_micron/g23m/nexgen/coreip/nexgen.a'
p143
sS'csw-system/drv_core/drivers_flash.a'
p144
S'__out__/LNX_TI_cgt2_70/rel_n5_camera_micron/csw-system/drv_core/drivers_flash.a'
p145
sS'csw-system/drv_core/timer/timer2.o'
p146
S'__out__/LNX_TI_cgt2_70/rel_n5_camera_micron/csw-system/drv_core/timer/timer2.o'
p147
sS'rv_swe.h'
p148
S'__out__/LNX_TI_cgt2_70/rel_n5_camera_micron/config/rv_swe.h'
p149
sS'csw-system/drv_app/hash/hash.a'
p150
S'__out__/LNX_TI_cgt2_70/rel_n5_camera_micron/csw-system/drv_app/hash/hash.a'
p151
sS'chipsetsw/Services/dar/dar_gbl_var.a'
p152
S'__out__/LNX_TI_cgt2_70/rel_n5_camera_micron/chipsetsw/Services/dar/dar_gbl_var.a'
p153
sS'csw-system/drv_app/uicc/uicc.a'
p154
S'__out__/LNX_TI_cgt2_70/rel_n5_camera_micron/csw-system/drv_app/uicc/uicc.a'
p155
sS'g23m-gsm/rr/rr.a'
p156
S'__out__/LNX_TI_cgt2_70/rel_n5_camera_micron/g23m-gsm/rr/rr.a'
p157
sS'HSW_FMStack/stack/fmstack.a'
p158
S'__out__/LNX_TI_cgt2_70/rel_n5_camera_micron/HSW_FMStack/stack/fmstack.a'
p159
sS'g23m-gsm/dl/dl.a'
p160
S'__out__/LNX_TI_cgt2_70/rel_n5_camera_micron/g23m-gsm/dl/dl.a'
p161
sS'g23m/condat/com/src/comlib/comlib.a'
p162
S'__out__/LNX_TI_cgt2_70/rel_n5_camera_micron/g23m/condat/com/src/comlib/comlib.a'
p163
sS'chipsetsw/Services/mks/mks.a'
p164
S'__out__/LNX_TI_cgt2_70/rel_n5_camera_micron/chipsetsw/Services/mks/mks.a'
p165
sS'bmi/Condat/MS/SRC/bmi/Icons/icn.a'
p166
S'__out__/LNX_TI_cgt2_70/rel_n5_camera_micron/bmi/Condat/MS/SRC/bmi/Icons/icn.a'
p167
sS'rel_n5_camera_micron.out'
p168
S'__out__/LNX_TI_cgt2_70/rel_n5_camera_micron/si/rel_n5_camera_micron.out'
p169
sS'csw-system/drv_core/timer/timer_sec.o'
p170
S'__out__/LNX_TI_cgt2_70/rel_n5_camera_micron/csw-system/drv_core/timer/timer_sec.o'
p171
sS'csw-system/drv_core/abb/bspTwl3029_UsbOtg.o'
p172
S'__out__/LNX_TI_cgt2_70/rel_n5_camera_micron/csw-system/drv_core/abb/bspTwl3029_UsbOtg.o'
p173
sS'bmi/bmi.a'
p174
S'__out__/LNX_TI_cgt2_70/rel_n5_camera_micron/bmi/bmi.a'
p175
sS'csw-system/drv_app.a'
p176
S'__out__/LNX_TI_cgt2_70/rel_n5_camera_micron/csw-system/drv_app.a'
p177
sS'csw-system/drv_core/abb/bspTwl3029_Sim.o'
p178
S'__out__/LNX_TI_cgt2_70/rel_n5_camera_micron/csw-system/drv_core/abb/bspTwl3029_Sim.o'
p179
sS'csw-system/drv_core/abb/bspTwl3029_Audio.o'
p180
S'__out__/LNX_TI_cgt2_70/rel_n5_camera_micron/csw-system/drv_core/abb/bspTwl3029_Audio.o'
p181
sS'chipsetsw/Services/as/as.a'
p182
S'__out__/LNX_TI_cgt2_70/rel_n5_camera_micron/chipsetsw/Services/as/as.a'
p183
sS'csw-system/drv_app/kpd/kpd.a'
p184
S'__out__/LNX_TI_cgt2_70/rel_n5_camera_micron/csw-system/drv_app/kpd/kpd.a'
p185
sS'L1/layer1/cfile/cfile/l1_cmplx_intram.o'
p186
S'__out__/LNX_TI_cgt2_70/rel_n5_camera_micron/L1/layer1/cfile/l1_cmplx_intram.o'
p187
sS'g23m-fad/tcpip/socket_lib.a'
p188
S'__out__/LNX_TI_cgt2_70/rel_n5_camera_micron/g23m-fad/tcpip/socket_lib.a'
p189
sS'chipsetsw/Services/dar/dar.a'
p190
S'__out__/LNX_TI_cgt2_70/rel_n5_camera_micron/chipsetsw/Services/dar/dar.a'
p191
sS'csw-system/drv_core/inth/niq32.o'
p192
S'__out__/LNX_TI_cgt2_70/rel_n5_camera_micron/csw-system/drv_core/inth/niq32.o'
p193
sS'L1/layer1/cfile/cfile/l1_cmplx_intram.c'
p194
S'__out__/LNX_TI_cgt2_70/rel_n5_camera_micron/L1/layer1/cfile/l1_cmplx_intram.c'
p195
sS'csw-system/drv_app/rfsfat/rfsfat.a'
p196
S'__out__/LNX_TI_cgt2_70/rel_n5_camera_micron/csw-system/drv_app/rfsfat/rfsfat.a'
p197
sS'g23m-fad/udp/udp.a'
p198
S'__out__/LNX_TI_cgt2_70/rel_n5_camera_micron/g23m-fad/udp/udp.a'
p199
sS'g23m-fad/ppp/ppp_ir.a'
p200
S'__out__/LNX_TI_cgt2_70/rel_n5_camera_micron/g23m-fad/ppp_ir/ppp_ir.a'
p201
sS'g23m-fad/t30/t30.a'
p202
S'__out__/LNX_TI_cgt2_70/rel_n5_camera_micron/g23m-fad/t30/t30.a'
p203
sS'csw-system/drv_core/spi/spi_drv.o'
p204
S'__out__/LNX_TI_cgt2_70/rel_n5_camera_micron/csw-system/drv_core/spi/spi_drv.o'
p205
sS'g23m-aci/aci_dti_mng/aci_dti_mng.a'
p206
S'__out__/LNX_TI_cgt2_70/rel_n5_camera_micron/g23m-aci/aci_dti_mng/aci_dti_mng.a'
p207
sS'csw-system/drv_app/mc/mc.a'
p208
S'__out__/LNX_TI_cgt2_70/rel_n5_camera_micron/csw-system/drv_app/mc/mc.a'
p209
sS'g23m-gprs/sndcp/sndcp.a'
p210
S'__out__/LNX_TI_cgt2_70/rel_n5_camera_micron/g23m-gprs/sndcp/sndcp.a'
p211
sS'csw-system/rtslib/v2_70/rts16le_flash.a'
p212
S'__out__/LNX_TI_cgt2_70/rel_n5_camera_micron/csw-system/rtslib/v2_70/rts16le_flash.a'
p213
sS'csw-system/drv_core/inth/sys_inth32.o'
p214
S'__out__/LNX_TI_cgt2_70/rel_n5_camera_micron/csw-system/drv_core/inth/sys_inth32.o'
p215
sS'csw-system/drv_core/i2c/i2c_pwr.o'
p216
S'__out__/LNX_TI_cgt2_70/rel_n5_camera_micron/csw-system/drv_core/i2c/i2c_pwr.o'
p217
sS'csw-system/drv_app/secure_rom/secure_rom.a'
p218
S'__out__/LNX_TI_cgt2_70/rel_n5_camera_micron/csw-system/drv_app/secure_rom/secure_rom.a'
p219
sS'g23m/condat/com/src/config/remu_int_ram.a'
p220
S'__out__/LNX_TI_cgt2_70/rel_n5_camera_micron/g23m/condat/com/src/config/remu_int_ram.a'
p221
sS'csw-system/init_common/init.a'
p222
S'__out__/LNX_TI_cgt2_70/rel_n5_camera_micron/csw-system/init_common/init.a'
p223
sS'chipsetsw/riviera/rvt/rvt.a'
p224
S'__out__/LNX_TI_cgt2_70/rel_n5_camera_micron/chipsetsw/riviera/rvt/rvt.a'
p225
sS'gpf/CCD/ccddata.a'
p226
S'__out__/LNX_TI_cgt2_70/rel_n5_camera_micron/gpf/CCD/ccddata.a'
p227
sS'csw-system/drv_core/abb/bspTwl3029_Rtc.o'
p228
S'__out__/LNX_TI_cgt2_70/rel_n5_camera_micron/csw-system/drv_core/abb/bspTwl3029_Rtc.o'
p229
sS'csw-system/drv_core/inth/inth.o'
p230
S'__out__/LNX_TI_cgt2_70/rel_n5_camera_micron/csw-system/drv_core/inth/inth.o'
p231
sS'g23m-gsm/ss/ss.a'
p232
S'__out__/LNX_TI_cgt2_70/rel_n5_camera_micron/g23m-gsm/ss/ss.a'
p233
sS'g23m-aci/aci_ext/aciext.a'
p234
S'__out__/LNX_TI_cgt2_70/rel_n5_camera_micron/g23m-aci/aci_ext/aciext.a'
p235
sS'g23m-gprs/llc/llc.a'
p236
S'__out__/LNX_TI_cgt2_70/rel_n5_camera_micron/g23m-gprs/llc/llc.a'
p237
sS'g23m-gsm/sim/sim.a'
p238
S'__out__/LNX_TI_cgt2_70/rel_n5_camera_micron/g23m-gsm/sim/sim.a'
p239
sS'g23m-fad/l2r/l2r.a'
p240
S'__out__/LNX_TI_cgt2_70/rel_n5_camera_micron/g23m-fad/l2r/l2r.a'
p241
sS'csw-system/drv_core/uart/uart.o'
p242
S'__out__/LNX_TI_cgt2_70/rel_n5_camera_micron/csw-system/drv_core/uart/uart.o'
p243
sS'csw-system/drv_core/clkm/drivers_int_ram.a'
p244
S'__out__/LNX_TI_cgt2_70/rel_n5_camera_micron/csw-system/drv_core/clkm/drivers_int_ram.a'
p245
sS'g23m/condat/ms/src/upm/upm.a'
p246
S'__out__/LNX_TI_cgt2_70/rel_n5_camera_micron/g23m/condat/ms/src/upm/upm.a'
p247
sS'chipsetsw/Services/msl/src/__out__/LNX_TI_cgt2_70/rel_n5_camera_micron/chipsetsw/Services/msl/msl.a'
p248
S'__out__/LNX_TI_cgt2_70/rel_n5_camera_micron/chipsetsw/Services/msl/msl.a'
p249
sS'csw-system/drv_app/rfs/rfs.a'
p250
S'__out__/LNX_TI_cgt2_70/rel_n5_camera_micron/csw-system/drv_app/rfs/rfs.a'
p251
sS'g23m/condat/frame/config/config_gprs_ir.a'
p252
S'__out__/LNX_TI_cgt2_70/rel_n5_camera_micron/g23m/condat/frame/config/ir/config_gprs_ir.a'
p253
sS'g23m-gprs/grlc/grlc.a'
p254
S'__out__/LNX_TI_cgt2_70/rel_n5_camera_micron/g23m-gprs/grlc/grlc.a'
p255
sS'g23m/condat/frame/config/config_gprs_fl.a'
p256
S'__out__/LNX_TI_cgt2_70/rel_n5_camera_micron/g23m/condat/frame/config/config_gprs_fl.a'
p257
sS'g23m-gprs/cci/cci.a'
p258
S'__out__/LNX_TI_cgt2_70/rel_n5_camera_micron/g23m-gprs/cci/cci.a'
p259
sS'csw-system/drv_app/usbfax/usbfax.a'
p260
S'__out__/LNX_TI_cgt2_70/rel_n5_camera_micron/csw-system/drv_app/usbfax/usbfax.a'
p261
sS'csw-system/drv_core/inth/niq.o'
p262
S'__out__/LNX_TI_cgt2_70/rel_n5_camera_micron/csw-system/drv_core/inth/niq.o'
p263
sS'chipsetsw/Services/omx_core/src/__out__/LNX_TI_cgt2_70/rel_n5_camera_micron/chipsetsw/Services/omx_core/omx_core.a'
p264
S'__out__/LNX_TI_cgt2_70/rel_n5_camera_micron/chipsetsw/Services/omx_core/omx_core.a'
p265
sS'g23m-gprs/gmm/gmm.a'
p266
S'__out__/LNX_TI_cgt2_70/rel_n5_camera_micron/g23m-gprs/gmm/gmm.a'
p267
sS'csw-system/drv_app/buzzer/buzzer.a'
p268
S'__out__/LNX_TI_cgt2_70/rel_n5_camera_micron/csw-system/drv_app/buzzer/buzzer.a'
p269
sS'B_TIPS/sbuild/__out__/LNX_TI_cgt2_70/rel_n5_camera_micron/B_TIPS/sbuild/bts.a'
p270
S'__out__/LNX_TI_cgt2_70/rel_n5_camera_micron/B_TIPS/sbuild/bts.a'
p271
sS'csw-system/drv_core/security/certificate.o'
p272
S'__out__/LNX_TI_cgt2_70/rel_n5_camera_micron/csw-system/drv_core/security/certificate.o'
p273
sS'L1/layer1/tpu_drivers/tpudrv.a'
p274
S'__out__/LNX_TI_cgt2_70/rel_n5_camera_micron/L1/layer1/tpu_drivers/tpudrv.a'
p275
sS'g23m-gprs/grlc/grlc_ir.a'
p276
S'__out__/LNX_TI_cgt2_70/rel_n5_camera_micron/g23m-gprs/grlc_ir/grlc_ir.a'
p277
sS'csw-system/drv_app/dma/dma.a'
p278
S'__out__/LNX_TI_cgt2_70/rel_n5_camera_micron/csw-system/drv_app/dma/dma.a'
p279
sS'csw-system/drv_core/abb/bspTwl3029_IntC.o'
p280
S'__out__/LNX_TI_cgt2_70/rel_n5_camera_micron/csw-system/drv_core/abb/bspTwl3029_IntC.o'
p281
sS'gpf/CCD/ccddata_dll.dll'
p282
S'__out__/LNX_TI_cgt2_70/rel_n5_camera_micron/gpf/CCD/dll/ccddata_dll.dll'
p283
sS'g23m-gprs/sm/sm.a'
p284
S'__out__/LNX_TI_cgt2_70/rel_n5_camera_micron/g23m-gprs/sm/sm.a'
p285
sS'ebtips/btl/btl.a'
p286
S'__out__/LNX_TI_cgt2_70/rel_n5_camera_micron/EBTIPS/btl/btl.a'
p287
sS'L1/layer1/cfile/p_cfile/l1p_cmpl_intram.o'
p288
S'__out__/LNX_TI_cgt2_70/rel_n5_camera_micron/L1/layer1/p_cfile/l1p_cmpl_intram.o'
p289
sS'csw-system/drv_app/ffs/ffs_pcm.a'
p290
S'__out__/LNX_TI_cgt2_70/rel_n5_camera_micron/csw-system/drv_app/ffs/ffs_pcm.a'
p291
sS'chipsetsw/Services/ssl/src/__out__/LNX_TI_cgt2_70/rel_n5_camera_micron/chipsetsw/Services/ssl/ssl.a'
p292
S'__out__/LNX_TI_cgt2_70/rel_n5_camera_micron/chipsetsw/Services/ssl/ssl.a'
p293
sS'L1/layer1/cfile/p_cfile/l1p_cmpl_intram.c'
p294
S'__out__/LNX_TI_cgt2_70/rel_n5_camera_micron/L1/layer1/p_cfile/l1p_cmpl_intram.c'
p295
sS'csw-system/drv_core/i2c/bspI2cMultiMaster.o'
p296
S'__out__/LNX_TI_cgt2_70/rel_n5_camera_micron/csw-system/drv_core/i2c/bspI2cMultiMaster.o'
p297
sS'chipsetsw/Services/omx_ssl/src/__out__/LNX_TI_cgt2_70/rel_n5_camera_micron/chipsetsw/Services/omx_ssl/omx_ssl.a'
p298
S'__out__/LNX_TI_cgt2_70/rel_n5_camera_micron/chipsetsw/Services/omx_ssl/omx_ssl.a'
p299
sS'csw-system/drv_app/die/die.a'
p300
S'__out__/LNX_TI_cgt2_70/rel_n5_camera_micron/csw-system/drv_app/die/die.a'
p301
sS'g23m-gprs/grr/grr.a'
p302
S'__out__/LNX_TI_cgt2_70/rel_n5_camera_micron/g23m-gprs/grr/grr.a'
p303
sS'chipsetsw/Services/Audio/audio_bgd.a'
p304
S'__out__/LNX_TI_cgt2_70/rel_n5_camera_micron/chipsetsw/Services/Audio/audio_bgd.a'
p305
sS'csw-system/drv_app/ffs/ffs.a'
p306
S'__out__/LNX_TI_cgt2_70/rel_n5_camera_micron/csw-system/drv_app/ffs/ffs.a'
p307
sS'csw-system/drv_app/dio_il/dio_il.a'
p308
S'__out__/LNX_TI_cgt2_70/rel_n5_camera_micron/csw-system/drv_app/dio_il/dio_il.a'
p309
sS'csw-system/drv_core/abb/bspTwl3029_Aux.o'
p310
S'__out__/LNX_TI_cgt2_70/rel_n5_camera_micron/csw-system/drv_core/abb/bspTwl3029_Aux.o'
p311
sS'csw-system/drv_app/rtc/rtc_drv.a'
p312
S'__out__/LNX_TI_cgt2_70/rel_n5_camera_micron/csw-system/drv_app/rtc/rtc_drv.a'
p313
sS'chipsetsw/Services/Audio/audio.a'
p314
S'__out__/LNX_TI_cgt2_70/rel_n5_camera_micron/chipsetsw/Services/Audio/audio.a'
p315
sS'chipsetsw/Services/Audio/audio_int_ram.a'
p316
S'__out__/LNX_TI_cgt2_70/rel_n5_camera_micron/chipsetsw/Services/Audio/audio_int_ram.a'
p317
sS'L1/layer1/cfile/cfile/l1_intram.o'
p318
S'__out__/LNX_TI_cgt2_70/rel_n5_camera_micron/L1/layer1/cfile/l1_intram.o'
p319
sS'csw-system/drv_core/abb/bspTwl3029_Madc.o'
p320
S'__out__/LNX_TI_cgt2_70/rel_n5_camera_micron/csw-system/drv_core/abb/bspTwl3029_Madc.o'
p321
sS'g23m-aci/bat/bat.a'
p322
S'__out__/LNX_TI_cgt2_70/rel_n5_camera_micron/g23m-aci/bat/bat.a'
p323
sS'L1/layer1/tm_cust0/l1_custom_ext.a'
p324
S'__out__/LNX_TI_cgt2_70/rel_n5_camera_micron/L1/layer1/tm_cust0/l1_custom_ext.a'
p325
sS'csw-system/drv_app/gbi/gbi.a'
p326
S'__out__/LNX_TI_cgt2_70/rel_n5_camera_micron/csw-system/drv_app/gbi/gbi.a'
p327
sS'csw-system/drv_app/mpk/mpk.a'
p328
S'__out__/LNX_TI_cgt2_70/rel_n5_camera_micron/csw-system/drv_app/mpk/mpk.a'
p329
sS'csw-system/drv_app/lcc/lcc.a'
p330
S'__out__/LNX_TI_cgt2_70/rel_n5_camera_micron/csw-system/drv_app/lcc/lcc.a'
p331
sS'bmi/Condat/MS/SRC/atb/atb.a'
p332
S'__out__/LNX_TI_cgt2_70/rel_n5_camera_micron/bmi/Condat/MS/SRC/atb/atb.a'
p333
sS'g23m-gprs/cci/cci_ir.a'
p334
S'__out__/LNX_TI_cgt2_70/rel_n5_camera_micron/g23m-gprs/cci_ir/cci_ir.a'
p335
sS'g23m-fad/fad/fad.a'
p336
S'__out__/LNX_TI_cgt2_70/rel_n5_camera_micron/g23m-fad/fad/fad.a'
p337
sS'L1/layer1/cust1/l1_custom_int.a'
p338
S'__out__/LNX_TI_cgt2_70/rel_n5_camera_micron/L1/layer1/cust1/l1_custom_int.a'
p339
sS'g23m-fad/app/app.a'
p340
S'__out__/LNX_TI_cgt2_70/rel_n5_camera_micron/g23m-fad/app/app.a'
p341
sS'g23m/condat/ms/src/psi/psi.a'
p342
S'__out__/LNX_TI_cgt2_70/rel_n5_camera_micron/g23m/condat/ms/src/psi/psi.a'
p343
sS'csw-system/drv_core/abb/bspTwl3029.o'
p344
S'__out__/LNX_TI_cgt2_70/rel_n5_camera_micron/csw-system/drv_core/abb/bspTwl3029.o'
p345
sS'g23m/condat/ms/src/ati_ext/atiext.a'
p346
S'__out__/LNX_TI_cgt2_70/rel_n5_camera_micron/g23m/condat/ms/src/ati_ext/atiext.a'
p347
sS'chipsetsw/Services/omx_img/src/__out__/LNX_TI_cgt2_70/rel_n5_camera_micron/chipsetsw/Services/omx_img/omx_img.a'
p348
S'__out__/LNX_TI_cgt2_70/rel_n5_camera_micron/chipsetsw/Services/omx_img/omx_img.a'
p349
s.